SF:/Users/didi/Desktop/vm/vm-core/src/device_emulation.rs
FN:592,_RNCNvMs7_NtCsbkbnPoCG8ZW_7vm_core16device_emulationNtB7_13DeviceManager19get_devices_by_type0B9_
FNDA:0,_RNCNvMs7_NtCsbkbnPoCG8ZW_7vm_core16device_emulationNtB7_13DeviceManager19get_devices_by_type0B9_
FNF:1
FNH:0
DA:592,0
DA:593,0
DA:594,0
DA:595,0
BRF:0
BRH:0
LF:4
LH:0
end_of_record
SF:/Users/didi/Desktop/vm/vm-core/src/domain_event_bus.rs
FN:45,_RNCNvMNtCsbkbnPoCG8ZW_7vm_core16domain_event_busNtB4_14DomainEventBus9subscribe0B6_
FN:59,_RNvMNtCsbkbnPoCG8ZW_7vm_core16domain_event_busNtB2_14DomainEventBus11unsubscribe
FN:22,_RNvMNtCsbkbnPoCG8ZW_7vm_core16domain_event_busNtB2_14DomainEventBus3new
FN:41,_RNvMNtCsbkbnPoCG8ZW_7vm_core16domain_event_busNtB2_14DomainEventBus9subscribe
FN:66,_RNvXs_NtCsbkbnPoCG8ZW_7vm_core16domain_event_busNtB4_14DomainEventBusNtNtCskzPJi2J8k3N_4core7default7Default7default
FN:30,_RINvMNtCsbkbnPoCG8ZW_7vm_core16domain_event_busNtB3_14DomainEventBus7publishNtNtNtB5_15domain_services6events15DomainEventEnumEB5_
FNDA:0,_RNCNvMNtCsbkbnPoCG8ZW_7vm_core16domain_event_busNtB4_14DomainEventBus9subscribe0B6_
FNDA:0,_RNvMNtCsbkbnPoCG8ZW_7vm_core16domain_event_busNtB2_14DomainEventBus11unsubscribe
FNDA:0,_RNvMNtCsbkbnPoCG8ZW_7vm_core16domain_event_busNtB2_14DomainEventBus3new
FNDA:0,_RNvMNtCsbkbnPoCG8ZW_7vm_core16domain_event_busNtB2_14DomainEventBus9subscribe
FNDA:0,_RNvXs_NtCsbkbnPoCG8ZW_7vm_core16domain_event_busNtB4_14DomainEventBusNtNtCskzPJi2J8k3N_4core7default7Default7default
FNDA:0,_RINvMNtCsbkbnPoCG8ZW_7vm_core16domain_event_busNtB3_14DomainEventBus7publishNtNtNtB5_15domain_services6events15DomainEventEnumEB5_
FNF:6
FNH:0
DA:22,0
DA:23,0
DA:24,0
DA:25,0
DA:26,0
DA:27,0
DA:30,0
DA:31,0
DA:32,0
DA:36,0
DA:37,0
DA:38,0
DA:41,0
DA:42,0
DA:43,0
DA:44,0
DA:45,0
DA:46,0
DA:47,0
DA:48,0
DA:49,0
DA:50,0
DA:51,0
DA:52,0
DA:53,0
DA:54,0
DA:55,0
DA:56,0
DA:59,0
DA:61,0
DA:62,0
DA:66,0
DA:67,0
DA:68,0
BRF:0
BRH:0
LF:36
LH:0
end_of_record
SF:/Users/didi/Desktop/vm/vm-core/src/domain_services/adaptive_optimization_service.rs
FN:416,_RNCNvMs_NtNtCsbkbnPoCG8ZW_7vm_core15domain_services29adaptive_optimization_serviceNtB6_33AdaptiveOptimizationDomainService25analyze_performance_trends0_0Ba_
FN:421,_RNCNvMs_NtNtCsbkbnPoCG8ZW_7vm_core15domain_services29adaptive_optimization_serviceNtB6_33AdaptiveOptimizationDomainService25analyze_performance_trends1_0Ba_
FN:423,_RNCNvMs_NtNtCsbkbnPoCG8ZW_7vm_core15domain_services29adaptive_optimization_serviceNtB6_33AdaptiveOptimizationDomainService25analyze_performance_trends2_0Ba_
FN:413,_RNCNvMs_NtNtCsbkbnPoCG8ZW_7vm_core15domain_services29adaptive_optimization_serviceNtB6_33AdaptiveOptimizationDomainService25analyze_performance_trends_0Ba_
FN:402,_RNCNvMs_NtNtCsbkbnPoCG8ZW_7vm_core15domain_services29adaptive_optimization_serviceNtB6_33AdaptiveOptimizationDomainService25analyze_performance_trend0Ba_
FN:337,_RNCNvMs_NtNtCsbkbnPoCG8ZW_7vm_core15domain_services29adaptive_optimization_serviceNtB6_33AdaptiveOptimizationDomainService15detect_hotspotss0_0Ba_
FNDA:0,_RNCNvMs_NtNtCsbkbnPoCG8ZW_7vm_core15domain_services29adaptive_optimization_serviceNtB6_33AdaptiveOptimizationDomainService25analyze_performance_trends0_0Ba_
FNDA:0,_RNCNvMs_NtNtCsbkbnPoCG8ZW_7vm_core15domain_services29adaptive_optimization_serviceNtB6_33AdaptiveOptimizationDomainService25analyze_performance_trends1_0Ba_
FNDA:0,_RNCNvMs_NtNtCsbkbnPoCG8ZW_7vm_core15domain_services29adaptive_optimization_serviceNtB6_33AdaptiveOptimizationDomainService25analyze_performance_trends2_0Ba_
FNDA:0,_RNCNvMs_NtNtCsbkbnPoCG8ZW_7vm_core15domain_services29adaptive_optimization_serviceNtB6_33AdaptiveOptimizationDomainService25analyze_performance_trends_0Ba_
FNDA:0,_RNCNvMs_NtNtCsbkbnPoCG8ZW_7vm_core15domain_services29adaptive_optimization_serviceNtB6_33AdaptiveOptimizationDomainService25analyze_performance_trend0Ba_
FNDA:0,_RNCNvMs_NtNtCsbkbnPoCG8ZW_7vm_core15domain_services29adaptive_optimization_serviceNtB6_33AdaptiveOptimizationDomainService15detect_hotspotss0_0Ba_
FNF:6
FNH:0
DA:337,0
DA:338,0
DA:339,0
DA:340,0
DA:341,0
DA:402,0
DA:403,0
DA:404,0
DA:413,0
DA:416,0
DA:421,0
DA:423,0
BRF:0
BRH:0
LF:12
LH:0
end_of_record
SF:/Users/didi/Desktop/vm/vm-core/src/domain_services/config/base.rs
FN:76,_RNvMNtNtNtCsbkbnPoCG8ZW_7vm_core15domain_services6config4baseNtB2_17BaseServiceConfig14with_event_bus
FN:86,_RNvMNtNtNtCsbkbnPoCG8ZW_7vm_core15domain_services6config4baseNtB2_17BaseServiceConfig17without_event_bus
FN:52,_RNvMNtNtNtCsbkbnPoCG8ZW_7vm_core15domain_services6config4baseNtB2_17BaseServiceConfig3new
FN:99,_RNvXs_NtNtNtCsbkbnPoCG8ZW_7vm_core15domain_services6config4baseNtB4_17BaseServiceConfigNtB4_13ServiceConfig13set_event_bus
FN:94,_RNvXs_NtNtNtCsbkbnPoCG8ZW_7vm_core15domain_services6config4baseNtB4_17BaseServiceConfigNtB4_13ServiceConfig9event_bus
FNDA:0,_RNvMNtNtNtCsbkbnPoCG8ZW_7vm_core15domain_services6config4baseNtB2_17BaseServiceConfig14with_event_bus
FNDA:0,_RNvMNtNtNtCsbkbnPoCG8ZW_7vm_core15domain_services6config4baseNtB2_17BaseServiceConfig17without_event_bus
FNDA:0,_RNvMNtNtNtCsbkbnPoCG8ZW_7vm_core15domain_services6config4baseNtB2_17BaseServiceConfig3new
FNDA:0,_RNvXs_NtNtNtCsbkbnPoCG8ZW_7vm_core15domain_services6config4baseNtB4_17BaseServiceConfigNtB4_13ServiceConfig13set_event_bus
FNDA:0,_RNvXs_NtNtNtCsbkbnPoCG8ZW_7vm_core15domain_services6config4baseNtB4_17BaseServiceConfigNtB4_13ServiceConfig9event_bus
FNF:5
FNH:0
DA:52,0
DA:53,0
DA:54,0
DA:76,0
DA:77,0
DA:78,0
DA:79,0
DA:86,0
DA:87,0
DA:88,0
DA:89,0
DA:94,0
DA:95,0
DA:96,0
DA:99,0
DA:100,0
DA:101,0
BRF:0
BRH:0
LF:17
LH:0
end_of_record
SF:/Users/didi/Desktop/vm/vm-core/src/domain_services/cross_architecture_translation_service.rs
FN:357,_RNCNvMNtNtCsbkbnPoCG8ZW_7vm_core15domain_services38cross_architecture_translation_serviceNtB4_41CrossArchitectureTranslationDomainService29validate_instruction_encoding0B8_
FNDA:0,_RNCNvMNtNtCsbkbnPoCG8ZW_7vm_core15domain_services38cross_architecture_translation_serviceNtB4_41CrossArchitectureTranslationDomainService29validate_instruction_encoding0B8_
FNF:1
FNH:0
DA:357,0
BRF:0
BRH:0
LF:1
LH:0
end_of_record
SF:/Users/didi/Desktop/vm/vm-core/src/domain_services/event_store.rs
FN:143,_RNCNvXs0_NtNtCsbkbnPoCG8ZW_7vm_core15domain_services11event_storeNtB7_18InMemoryEventStoreNtB7_10EventStore5query0Bb_
FN:134,_RNCNvXs0_NtNtCsbkbnPoCG8ZW_7vm_core15domain_services11event_storeNtB7_18InMemoryEventStoreNtB7_10EventStore6replay0Bb_
FNDA:0,_RNCNvXs0_NtNtCsbkbnPoCG8ZW_7vm_core15domain_services11event_storeNtB7_18InMemoryEventStoreNtB7_10EventStore5query0Bb_
FNDA:0,_RNCNvXs0_NtNtCsbkbnPoCG8ZW_7vm_core15domain_services11event_storeNtB7_18InMemoryEventStoreNtB7_10EventStore6replay0Bb_
FNF:2
FNH:0
DA:134,0
DA:143,0
DA:145,0
DA:146,0
DA:147,0
DA:149,0
DA:150,0
DA:151,0
DA:154,0
DA:155,0
DA:156,0
DA:157,0
DA:159,0
DA:161,0
DA:162,0
BRF:0
BRH:0
LF:15
LH:0
end_of_record
SF:/Users/didi/Desktop/vm/vm-core/src/domain_services/execution_manager_service.rs
FN:288,_RNCNvMs2_NtNtCsbkbnPoCG8ZW_7vm_core15domain_services25execution_manager_serviceNtB7_29ExecutionManagerDomainService12next_context0Bb_
FN:352,_RNCNvMs2_NtNtCsbkbnPoCG8ZW_7vm_core15domain_services25execution_manager_serviceNtB7_29ExecutionManagerDomainService13pause_context0Bb_
FN:330,_RNCNvMs2_NtNtCsbkbnPoCG8ZW_7vm_core15domain_services25execution_manager_serviceNtB7_29ExecutionManagerDomainService14fail_execution0Bb_
FN:368,_RNCNvMs2_NtNtCsbkbnPoCG8ZW_7vm_core15domain_services25execution_manager_serviceNtB7_29ExecutionManagerDomainService14resume_context0Bb_
FN:300,_RNCNvMs2_NtNtCsbkbnPoCG8ZW_7vm_core15domain_services25execution_manager_serviceNtB7_29ExecutionManagerDomainService18complete_execution0Bb_
FN:267,_RNCNvMs2_NtNtCsbkbnPoCG8ZW_7vm_core15domain_services25execution_manager_serviceNtB7_29ExecutionManagerDomainService8schedules0_0Bb_
FN:36,_RNvMNtNtCsbkbnPoCG8ZW_7vm_core15domain_services25execution_manager_serviceNtB2_14ExecutionState11is_terminal
FN:32,_RNvMNtNtCsbkbnPoCG8ZW_7vm_core15domain_services25execution_manager_serviceNtB2_14ExecutionState9is_active
FN:105,_RNvMs0_NtNtCsbkbnPoCG8ZW_7vm_core15domain_services25execution_manager_serviceNtB5_17ExecutionPriority10from_level
FN:114,_RNvMs0_NtNtCsbkbnPoCG8ZW_7vm_core15domain_services25execution_manager_serviceNtB5_17ExecutionPriority8as_level
FN:147,_RNvMs1_NtNtCsbkbnPoCG8ZW_7vm_core15domain_services25execution_manager_serviceNtB5_19ExecutionStatistics12failure_rate
FN:139,_RNvMs1_NtNtCsbkbnPoCG8ZW_7vm_core15domain_services25execution_manager_serviceNtB5_19ExecutionStatistics12success_rate
FN:155,_RNvMs1_NtNtCsbkbnPoCG8ZW_7vm_core15domain_services25execution_manager_serviceNtB5_19ExecutionStatistics30avg_instructions_per_execution
FN:222,_RNvMs2_NtNtCsbkbnPoCG8ZW_7vm_core15domain_services25execution_manager_serviceNtB5_29ExecutionManagerDomainService11get_context
FN:282,_RNvMs2_NtNtCsbkbnPoCG8ZW_7vm_core15domain_services25execution_manager_serviceNtB5_29ExecutionManagerDomainService12next_context
FN:351,_RNvMs2_NtNtCsbkbnPoCG8ZW_7vm_core15domain_services25execution_manager_serviceNtB5_29ExecutionManagerDomainService13pause_context
FN:412,_RNvMs2_NtNtCsbkbnPoCG8ZW_7vm_core15domain_services25execution_manager_serviceNtB5_29ExecutionManagerDomainService13publish_event
FN:193,_RNvMs2_NtNtCsbkbnPoCG8ZW_7vm_core15domain_services25execution_manager_serviceNtB5_29ExecutionManagerDomainService13set_event_bus
FN:198,_RNvMs2_NtNtCsbkbnPoCG8ZW_7vm_core15domain_services25execution_manager_serviceNtB5_29ExecutionManagerDomainService14create_context
FN:232,_RNvMs2_NtNtCsbkbnPoCG8ZW_7vm_core15domain_services25execution_manager_serviceNtB5_29ExecutionManagerDomainService14delete_context
FN:329,_RNvMs2_NtNtCsbkbnPoCG8ZW_7vm_core15domain_services25execution_manager_serviceNtB5_29ExecutionManagerDomainService14fail_execution
FN:385,_RNvMs2_NtNtCsbkbnPoCG8ZW_7vm_core15domain_services25execution_manager_serviceNtB5_29ExecutionManagerDomainService14get_statistics
FN:367,_RNvMs2_NtNtCsbkbnPoCG8ZW_7vm_core15domain_services25execution_manager_serviceNtB5_29ExecutionManagerDomainService14resume_context
FN:227,_RNvMs2_NtNtCsbkbnPoCG8ZW_7vm_core15domain_services25execution_manager_serviceNtB5_29ExecutionManagerDomainService15get_context_mut
FN:299,_RNvMs2_NtNtCsbkbnPoCG8ZW_7vm_core15domain_services25execution_manager_serviceNtB5_29ExecutionManagerDomainService18complete_execution
FN:395,_RNvMs2_NtNtCsbkbnPoCG8ZW_7vm_core15domain_services25execution_manager_serviceNtB5_29ExecutionManagerDomainService21count_active_contexts
FN:390,_RNvMs2_NtNtCsbkbnPoCG8ZW_7vm_core15domain_services25execution_manager_serviceNtB5_29ExecutionManagerDomainService23set_max_active_contexts
FN:403,_RNvMs2_NtNtCsbkbnPoCG8ZW_7vm_core15domain_services25execution_manager_serviceNtB5_29ExecutionManagerDomainService25update_avg_execution_time
FN:182,_RNvMs2_NtNtCsbkbnPoCG8ZW_7vm_core15domain_services25execution_manager_serviceNtB5_29ExecutionManagerDomainService3new
FN:254,_RNvMs2_NtNtCsbkbnPoCG8ZW_7vm_core15domain_services25execution_manager_serviceNtB5_29ExecutionManagerDomainService8schedule
FN:82,_RNvMs_NtNtCsbkbnPoCG8ZW_7vm_core15domain_services25execution_manager_serviceNtB4_16ExecutionContext18add_execution_time
FN:86,_RNvMs_NtNtCsbkbnPoCG8ZW_7vm_core15domain_services25execution_manager_serviceNtB4_16ExecutionContext22increment_instructions
FN:63,_RNvMs_NtNtCsbkbnPoCG8ZW_7vm_core15domain_services25execution_manager_serviceNtB4_16ExecutionContext3new
FN:77,_RNvMs_NtNtCsbkbnPoCG8ZW_7vm_core15domain_services25execution_manager_serviceNtB4_16ExecutionContext6update
FN:420,_RNvXs3_NtNtCsbkbnPoCG8ZW_7vm_core15domain_services25execution_manager_serviceNtB5_29ExecutionManagerDomainServiceNtNtCskzPJi2J8k3N_4core7default7Default7default
FN:398,_RNCNvMs2_NtNtCsbkbnPoCG8ZW_7vm_core15domain_services25execution_manager_serviceNtB7_29ExecutionManagerDomainService21count_active_contexts0Bb_
FN:234,_RNCNvMs2_NtNtCsbkbnPoCG8ZW_7vm_core15domain_services25execution_manager_serviceNtB7_29ExecutionManagerDomainService14delete_context0Bb_
FN:263,_RNCNvMs2_NtNtCsbkbnPoCG8ZW_7vm_core15domain_services25execution_manager_serviceNtB7_29ExecutionManagerDomainService8schedule0Bb_
FN:210,_RNCNvMs2_NtNtCsbkbnPoCG8ZW_7vm_core15domain_services25execution_manager_serviceNtB7_29ExecutionManagerDomainService14create_context0Bb_
FN:377,_RNCNvMs2_NtNtCsbkbnPoCG8ZW_7vm_core15domain_services25execution_manager_serviceNtB7_29ExecutionManagerDomainService14resume_contexts_0Bb_
FN:265,_RNCNvMs2_NtNtCsbkbnPoCG8ZW_7vm_core15domain_services25execution_manager_serviceNtB7_29ExecutionManagerDomainService8schedules_0Bb_
FNDA:0,_RNCNvMs2_NtNtCsbkbnPoCG8ZW_7vm_core15domain_services25execution_manager_serviceNtB7_29ExecutionManagerDomainService12next_context0Bb_
FNDA:0,_RNCNvMs2_NtNtCsbkbnPoCG8ZW_7vm_core15domain_services25execution_manager_serviceNtB7_29ExecutionManagerDomainService13pause_context0Bb_
FNDA:0,_RNCNvMs2_NtNtCsbkbnPoCG8ZW_7vm_core15domain_services25execution_manager_serviceNtB7_29ExecutionManagerDomainService14fail_execution0Bb_
FNDA:0,_RNCNvMs2_NtNtCsbkbnPoCG8ZW_7vm_core15domain_services25execution_manager_serviceNtB7_29ExecutionManagerDomainService14resume_context0Bb_
FNDA:0,_RNCNvMs2_NtNtCsbkbnPoCG8ZW_7vm_core15domain_services25execution_manager_serviceNtB7_29ExecutionManagerDomainService18complete_execution0Bb_
FNDA:0,_RNCNvMs2_NtNtCsbkbnPoCG8ZW_7vm_core15domain_services25execution_manager_serviceNtB7_29ExecutionManagerDomainService8schedules0_0Bb_
FNDA:0,_RNvMNtNtCsbkbnPoCG8ZW_7vm_core15domain_services25execution_manager_serviceNtB2_14ExecutionState11is_terminal
FNDA:0,_RNvMNtNtCsbkbnPoCG8ZW_7vm_core15domain_services25execution_manager_serviceNtB2_14ExecutionState9is_active
FNDA:0,_RNvMs0_NtNtCsbkbnPoCG8ZW_7vm_core15domain_services25execution_manager_serviceNtB5_17ExecutionPriority10from_level
FNDA:0,_RNvMs0_NtNtCsbkbnPoCG8ZW_7vm_core15domain_services25execution_manager_serviceNtB5_17ExecutionPriority8as_level
FNDA:0,_RNvMs1_NtNtCsbkbnPoCG8ZW_7vm_core15domain_services25execution_manager_serviceNtB5_19ExecutionStatistics12failure_rate
FNDA:0,_RNvMs1_NtNtCsbkbnPoCG8ZW_7vm_core15domain_services25execution_manager_serviceNtB5_19ExecutionStatistics12success_rate
FNDA:0,_RNvMs1_NtNtCsbkbnPoCG8ZW_7vm_core15domain_services25execution_manager_serviceNtB5_19ExecutionStatistics30avg_instructions_per_execution
FNDA:0,_RNvMs2_NtNtCsbkbnPoCG8ZW_7vm_core15domain_services25execution_manager_serviceNtB5_29ExecutionManagerDomainService11get_context
FNDA:0,_RNvMs2_NtNtCsbkbnPoCG8ZW_7vm_core15domain_services25execution_manager_serviceNtB5_29ExecutionManagerDomainService12next_context
FNDA:0,_RNvMs2_NtNtCsbkbnPoCG8ZW_7vm_core15domain_services25execution_manager_serviceNtB5_29ExecutionManagerDomainService13pause_context
FNDA:0,_RNvMs2_NtNtCsbkbnPoCG8ZW_7vm_core15domain_services25execution_manager_serviceNtB5_29ExecutionManagerDomainService13publish_event
FNDA:0,_RNvMs2_NtNtCsbkbnPoCG8ZW_7vm_core15domain_services25execution_manager_serviceNtB5_29ExecutionManagerDomainService13set_event_bus
FNDA:0,_RNvMs2_NtNtCsbkbnPoCG8ZW_7vm_core15domain_services25execution_manager_serviceNtB5_29ExecutionManagerDomainService14create_context
FNDA:0,_RNvMs2_NtNtCsbkbnPoCG8ZW_7vm_core15domain_services25execution_manager_serviceNtB5_29ExecutionManagerDomainService14delete_context
FNDA:0,_RNvMs2_NtNtCsbkbnPoCG8ZW_7vm_core15domain_services25execution_manager_serviceNtB5_29ExecutionManagerDomainService14fail_execution
FNDA:0,_RNvMs2_NtNtCsbkbnPoCG8ZW_7vm_core15domain_services25execution_manager_serviceNtB5_29ExecutionManagerDomainService14get_statistics
FNDA:0,_RNvMs2_NtNtCsbkbnPoCG8ZW_7vm_core15domain_services25execution_manager_serviceNtB5_29ExecutionManagerDomainService14resume_context
FNDA:0,_RNvMs2_NtNtCsbkbnPoCG8ZW_7vm_core15domain_services25execution_manager_serviceNtB5_29ExecutionManagerDomainService15get_context_mut
FNDA:0,_RNvMs2_NtNtCsbkbnPoCG8ZW_7vm_core15domain_services25execution_manager_serviceNtB5_29ExecutionManagerDomainService18complete_execution
FNDA:0,_RNvMs2_NtNtCsbkbnPoCG8ZW_7vm_core15domain_services25execution_manager_serviceNtB5_29ExecutionManagerDomainService21count_active_contexts
FNDA:0,_RNvMs2_NtNtCsbkbnPoCG8ZW_7vm_core15domain_services25execution_manager_serviceNtB5_29ExecutionManagerDomainService23set_max_active_contexts
FNDA:0,_RNvMs2_NtNtCsbkbnPoCG8ZW_7vm_core15domain_services25execution_manager_serviceNtB5_29ExecutionManagerDomainService25update_avg_execution_time
FNDA:0,_RNvMs2_NtNtCsbkbnPoCG8ZW_7vm_core15domain_services25execution_manager_serviceNtB5_29ExecutionManagerDomainService3new
FNDA:0,_RNvMs2_NtNtCsbkbnPoCG8ZW_7vm_core15domain_services25execution_manager_serviceNtB5_29ExecutionManagerDomainService8schedule
FNDA:0,_RNvMs_NtNtCsbkbnPoCG8ZW_7vm_core15domain_services25execution_manager_serviceNtB4_16ExecutionContext18add_execution_time
FNDA:0,_RNvMs_NtNtCsbkbnPoCG8ZW_7vm_core15domain_services25execution_manager_serviceNtB4_16ExecutionContext22increment_instructions
FNDA:0,_RNvMs_NtNtCsbkbnPoCG8ZW_7vm_core15domain_services25execution_manager_serviceNtB4_16ExecutionContext3new
FNDA:0,_RNvMs_NtNtCsbkbnPoCG8ZW_7vm_core15domain_services25execution_manager_serviceNtB4_16ExecutionContext6update
FNDA:0,_RNvXs3_NtNtCsbkbnPoCG8ZW_7vm_core15domain_services25execution_manager_serviceNtB5_29ExecutionManagerDomainServiceNtNtCskzPJi2J8k3N_4core7default7Default7default
FNDA:0,_RNCNvMs2_NtNtCsbkbnPoCG8ZW_7vm_core15domain_services25execution_manager_serviceNtB7_29ExecutionManagerDomainService21count_active_contexts0Bb_
FNDA:0,_RNCNvMs2_NtNtCsbkbnPoCG8ZW_7vm_core15domain_services25execution_manager_serviceNtB7_29ExecutionManagerDomainService14delete_context0Bb_
FNDA:0,_RNCNvMs2_NtNtCsbkbnPoCG8ZW_7vm_core15domain_services25execution_manager_serviceNtB7_29ExecutionManagerDomainService8schedule0Bb_
FNDA:0,_RNCNvMs2_NtNtCsbkbnPoCG8ZW_7vm_core15domain_services25execution_manager_serviceNtB7_29ExecutionManagerDomainService14create_context0Bb_
FNDA:0,_RNCNvMs2_NtNtCsbkbnPoCG8ZW_7vm_core15domain_services25execution_manager_serviceNtB7_29ExecutionManagerDomainService14resume_contexts_0Bb_
FNDA:0,_RNCNvMs2_NtNtCsbkbnPoCG8ZW_7vm_core15domain_services25execution_manager_serviceNtB7_29ExecutionManagerDomainService8schedules_0Bb_
FNF:41
FNH:0
DA:32,0
DA:33,0
DA:34,0
DA:36,0
DA:37,0
DA:38,0
DA:63,0
DA:64,0
DA:65,0
DA:66,0
DA:67,0
DA:68,0
DA:69,0
DA:70,0
DA:71,0
DA:72,0
DA:73,0
DA:74,0
DA:75,0
DA:77,0
DA:78,0
DA:79,0
DA:80,0
DA:82,0
DA:83,0
DA:84,0
DA:86,0
DA:87,0
DA:88,0
DA:105,0
DA:106,0
DA:107,0
DA:108,0
DA:109,0
DA:110,0
DA:112,0
DA:114,0
DA:115,0
DA:116,0
DA:139,0
DA:140,0
DA:141,0
DA:143,0
DA:145,0
DA:147,0
DA:148,0
DA:149,0
DA:151,0
DA:153,0
DA:155,0
DA:156,0
DA:157,0
DA:159,0
DA:161,0
DA:182,0
DA:183,0
DA:184,0
DA:185,0
DA:186,0
DA:187,0
DA:188,0
DA:189,0
DA:190,0
DA:193,0
DA:194,0
DA:195,0
DA:198,0
DA:199,0
DA:200,0
DA:201,0
DA:202,0
DA:203,0
DA:204,0
DA:205,0
DA:207,0
DA:208,0
DA:209,0
DA:210,0
DA:212,0
DA:213,0
DA:214,0
DA:215,0
DA:216,0
DA:218,0
DA:219,0
DA:222,0
DA:223,0
DA:224,0
DA:227,0
DA:228,0
DA:229,0
DA:232,0
DA:233,0
DA:234,0
DA:236,0
DA:237,0
DA:238,0
DA:239,0
DA:240,0
DA:241,0
DA:243,0
DA:245,0
DA:246,0
DA:247,0
DA:248,0
DA:249,0
DA:251,0
DA:254,0
DA:255,0
DA:256,0
DA:257,0
DA:258,0
DA:259,0
DA:260,0
DA:261,0
DA:263,0
DA:264,0
DA:265,0
DA:267,0
DA:268,0
DA:269,0
DA:270,0
DA:271,0
DA:272,0
DA:273,0
DA:274,0
DA:276,0
DA:278,0
DA:279,0
DA:282,0
DA:283,0
DA:284,0
DA:285,0
DA:286,0
DA:288,0
DA:289,0
DA:290,0
DA:291,0
DA:292,0
DA:293,0
DA:294,0
DA:295,0
DA:296,0
DA:299,0
DA:300,0
DA:301,0
DA:302,0
DA:303,0
DA:304,0
DA:305,0
DA:306,0
DA:307,0
DA:308,0
DA:309,0
DA:310,0
DA:311,0
DA:314,0
DA:315,0
DA:317,0
DA:319,0
DA:320,0
DA:321,0
DA:322,0
DA:323,0
DA:325,0
DA:326,0
DA:329,0
DA:330,0
DA:331,0
DA:332,0
DA:333,0
DA:334,0
DA:335,0
DA:336,0
DA:337,0
DA:338,0
DA:339,0
DA:340,0
DA:342,0
DA:343,0
DA:344,0
DA:345,0
DA:347,0
DA:348,0
DA:351,0
DA:352,0
DA:353,0
DA:354,0
DA:355,0
DA:356,0
DA:357,0
DA:358,0
DA:359,0
DA:361,0
DA:363,0
DA:364,0
DA:367,0
DA:368,0
DA:369,0
DA:370,0
DA:371,0
DA:372,0
DA:373,0
DA:374,0
DA:375,0
DA:376,0
DA:377,0
DA:379,0
DA:381,0
DA:382,0
DA:385,0
DA:386,0
DA:387,0
DA:390,0
DA:391,0
DA:392,0
DA:395,0
DA:396,0
DA:397,0
DA:398,0
DA:399,0
DA:400,0
DA:403,0
DA:404,0
DA:405,0
DA:406,0
DA:407,0
DA:408,0
DA:409,0
DA:412,0
DA:413,0
DA:414,0
DA:415,0
DA:416,0
DA:420,0
DA:421,0
DA:422,0
BRF:0
BRH:0
LF:254
LH:0
end_of_record
SF:/Users/didi/Desktop/vm/vm-core/src/domain_services/optimization_pipeline_service.rs
FN:42,_RNvMNtNtCsbkbnPoCG8ZW_7vm_core15domain_services29optimization_pipeline_serviceNtB2_17OptimizationStage4name
FN:177,_RNvMs1_NtNtCsbkbnPoCG8ZW_7vm_core15domain_services29optimization_pipeline_serviceNtB5_33OptimizationPipelineDomainService13set_event_bus
FN:184,_RNvMs1_NtNtCsbkbnPoCG8ZW_7vm_core15domain_services29optimization_pipeline_serviceNtB5_33OptimizationPipelineDomainService16execute_pipeline
FN:172,_RNvMs1_NtNtCsbkbnPoCG8ZW_7vm_core15domain_services29optimization_pipeline_serviceNtB5_33OptimizationPipelineDomainService17add_business_rule
FN:287,_RNvMs1_NtNtCsbkbnPoCG8ZW_7vm_core15domain_services29optimization_pipeline_serviceNtB5_33OptimizationPipelineDomainService18optimization_level
FN:294,_RNvMs1_NtNtCsbkbnPoCG8ZW_7vm_core15domain_services29optimization_pipeline_serviceNtB5_33OptimizationPipelineDomainService21supports_optimization
FN:299,_RNvMs1_NtNtCsbkbnPoCG8ZW_7vm_core15domain_services29optimization_pipeline_serviceNtB5_33OptimizationPipelineDomainService26publish_optimization_event
FN:153,_RNvMs1_NtNtCsbkbnPoCG8ZW_7vm_core15domain_services29optimization_pipeline_serviceNtB5_33OptimizationPipelineDomainService3new
FN:69,_RNvMs_NtNtCsbkbnPoCG8ZW_7vm_core15domain_services29optimization_pipeline_serviceNtB4_26OptimizationPipelineConfig3new
FN:111,_RNvXs0_NtNtCsbkbnPoCG8ZW_7vm_core15domain_services29optimization_pipeline_serviceNtB5_26OptimizationPipelineConfigNtNtCskzPJi2J8k3N_4core7default7Default7default
FNDA:0,_RNvMNtNtCsbkbnPoCG8ZW_7vm_core15domain_services29optimization_pipeline_serviceNtB2_17OptimizationStage4name
FNDA:0,_RNvMs1_NtNtCsbkbnPoCG8ZW_7vm_core15domain_services29optimization_pipeline_serviceNtB5_33OptimizationPipelineDomainService13set_event_bus
FNDA:0,_RNvMs1_NtNtCsbkbnPoCG8ZW_7vm_core15domain_services29optimization_pipeline_serviceNtB5_33OptimizationPipelineDomainService16execute_pipeline
FNDA:0,_RNvMs1_NtNtCsbkbnPoCG8ZW_7vm_core15domain_services29optimization_pipeline_serviceNtB5_33OptimizationPipelineDomainService17add_business_rule
FNDA:0,_RNvMs1_NtNtCsbkbnPoCG8ZW_7vm_core15domain_services29optimization_pipeline_serviceNtB5_33OptimizationPipelineDomainService18optimization_level
FNDA:0,_RNvMs1_NtNtCsbkbnPoCG8ZW_7vm_core15domain_services29optimization_pipeline_serviceNtB5_33OptimizationPipelineDomainService21supports_optimization
FNDA:0,_RNvMs1_NtNtCsbkbnPoCG8ZW_7vm_core15domain_services29optimization_pipeline_serviceNtB5_33OptimizationPipelineDomainService26publish_optimization_event
FNDA:0,_RNvMs1_NtNtCsbkbnPoCG8ZW_7vm_core15domain_services29optimization_pipeline_serviceNtB5_33OptimizationPipelineDomainService3new
FNDA:0,_RNvMs_NtNtCsbkbnPoCG8ZW_7vm_core15domain_services29optimization_pipeline_serviceNtB4_26OptimizationPipelineConfig3new
FNDA:0,_RNvXs0_NtNtCsbkbnPoCG8ZW_7vm_core15domain_services29optimization_pipeline_serviceNtB5_26OptimizationPipelineConfigNtNtCskzPJi2J8k3N_4core7default7Default7default
FNF:10
FNH:0
DA:42,0
DA:43,0
DA:44,0
DA:45,0
DA:46,0
DA:47,0
DA:48,0
DA:49,0
DA:51,0
DA:69,0
DA:70,0
DA:71,0
DA:72,0
DA:73,0
DA:74,0
DA:75,0
DA:76,0
DA:77,0
DA:79,0
DA:80,0
DA:81,0
DA:82,0
DA:84,0
DA:85,0
DA:86,0
DA:87,0
DA:88,0
DA:90,0
DA:91,0
DA:92,0
DA:93,0
DA:94,0
DA:95,0
DA:96,0
DA:98,0
DA:101,0
DA:102,0
DA:103,0
DA:104,0
DA:105,0
DA:106,0
DA:107,0
DA:111,0
DA:112,0
DA:113,0
DA:153,0
DA:154,0
DA:155,0
DA:156,0
DA:157,0
DA:158,0
DA:159,0
DA:160,0
DA:161,0
DA:164,0
DA:165,0
DA:166,0
DA:168,0
DA:169,0
DA:172,0
DA:173,0
DA:174,0
DA:177,0
DA:178,0
DA:179,0
DA:184,0
DA:185,0
DA:186,0
DA:187,0
DA:188,0
DA:287,0
DA:288,0
DA:289,0
DA:294,0
DA:295,0
DA:296,0
DA:299,0
DA:300,0
DA:301,0
DA:302,0
DA:303,0
DA:304,0
BRF:0
BRH:0
LF:82
LH:0
end_of_record
SF:/Users/didi/Desktop/vm/vm-core/src/domain_services/performance_optimization_service.rs
FN:1066,_RNCNvMNtNtCsbkbnPoCG8ZW_7vm_core15domain_services32performance_optimization_serviceNtB4_36PerformanceOptimizationDomainService17assess_plan_risks0B8_
FN:855,_RNCNvMNtNtCsbkbnPoCG8ZW_7vm_core15domain_services32performance_optimization_serviceNtB4_36PerformanceOptimizationDomainService21identify_risk_factors0B8_
FN:683,_RNCNvMNtNtCsbkbnPoCG8ZW_7vm_core15domain_services32performance_optimization_serviceNtB4_36PerformanceOptimizationDomainService22strategy_matches_goals0B8_
FN:903,_RNCNvMNtNtCsbkbnPoCG8ZW_7vm_core15domain_services32performance_optimization_serviceNtB4_36PerformanceOptimizationDomainService31group_recommendations_by_domain0B8_
FN:47,_RNvMNtNtCsbkbnPoCG8ZW_7vm_core15domain_services32performance_optimization_serviceNtB2_36PerformanceOptimizationDomainService10with_rules
FN:62,_RNvMNtNtCsbkbnPoCG8ZW_7vm_core15domain_services32performance_optimization_serviceNtB2_36PerformanceOptimizationDomainService14with_event_bus
FN:1042,_RNvMNtNtCsbkbnPoCG8ZW_7vm_core15domain_services32performance_optimization_serviceNtB2_36PerformanceOptimizationDomainService17assess_plan_risks
FN:837,_RNvMNtNtCsbkbnPoCG8ZW_7vm_core15domain_services32performance_optimization_serviceNtB2_36PerformanceOptimizationDomainService21identify_risk_factors
FN:504,_RNvMNtNtCsbkbnPoCG8ZW_7vm_core15domain_services32performance_optimization_serviceNtB2_36PerformanceOptimizationDomainService22analyze_io_bottlenecks
FN:569,_RNvMNtNtCsbkbnPoCG8ZW_7vm_core15domain_services32performance_optimization_serviceNtB2_36PerformanceOptimizationDomainService22prioritize_bottlenecks
FN:678,_RNvMNtNtCsbkbnPoCG8ZW_7vm_core15domain_services32performance_optimization_serviceNtB2_36PerformanceOptimizationDomainService22strategy_matches_goals
FN:390,_RNvMNtNtCsbkbnPoCG8ZW_7vm_core15domain_services32performance_optimization_serviceNtB2_36PerformanceOptimizationDomainService23analyze_cpu_bottlenecks
FN:958,_RNvMNtNtCsbkbnPoCG8ZW_7vm_core15domain_services32performance_optimization_serviceNtB2_36PerformanceOptimizationDomainService23estimate_phase_duration
FN:803,_RNvMNtNtCsbkbnPoCG8ZW_7vm_core15domain_services32performance_optimization_serviceNtB2_36PerformanceOptimizationDomainService24calculate_domain_impacts
FN:208,_RNvMNtNtCsbkbnPoCG8ZW_7vm_core15domain_services32performance_optimization_serviceNtB2_36PerformanceOptimizationDomainService25execute_optimization_plan
FN:1018,_RNvMNtNtCsbkbnPoCG8ZW_7vm_core15domain_services32performance_optimization_serviceNtB2_36PerformanceOptimizationDomainService25validate_plan_feasibility
FN:445,_RNvMNtNtCsbkbnPoCG8ZW_7vm_core15domain_services32performance_optimization_serviceNtB2_36PerformanceOptimizationDomainService26analyze_memory_bottlenecks
FN:820,_RNvMNtNtCsbkbnPoCG8ZW_7vm_core15domain_services32performance_optimization_serviceNtB2_36PerformanceOptimizationDomainService26calculate_confidence_level
FN:1320,_RNvMNtNtCsbkbnPoCG8ZW_7vm_core15domain_services32performance_optimization_serviceNtB2_36PerformanceOptimizationDomainService26calculate_optimization_roi
FN:1084,_RNvMNtNtCsbkbnPoCG8ZW_7vm_core15domain_services32performance_optimization_serviceNtB2_36PerformanceOptimizationDomainService26calculate_phase_complexity
FN:912,_RNvMNtNtCsbkbnPoCG8ZW_7vm_core15domain_services32performance_optimization_serviceNtB2_36PerformanceOptimizationDomainService26create_optimization_phases
FN:1107,_RNvMNtNtCsbkbnPoCG8ZW_7vm_core15domain_services32performance_optimization_serviceNtB2_36PerformanceOptimizationDomainService26execute_optimization_phase
FN:762,_RNvMNtNtCsbkbnPoCG8ZW_7vm_core15domain_services32performance_optimization_serviceNtB2_36PerformanceOptimizationDomainService26prioritize_recommendations
FN:1351,_RNvMNtNtCsbkbnPoCG8ZW_7vm_core15domain_services32performance_optimization_serviceNtB2_36PerformanceOptimizationDomainService26publish_optimization_event
FN:697,_RNvMNtNtCsbkbnPoCG8ZW_7vm_core15domain_services32performance_optimization_serviceNtB2_36PerformanceOptimizationDomainService26strategy_meets_constraints
FN:1182,_RNvMNtNtCsbkbnPoCG8ZW_7vm_core15domain_services32performance_optimization_serviceNtB2_36PerformanceOptimizationDomainService28analyze_domain_effectiveness
FN:1146,_RNvMNtNtCsbkbnPoCG8ZW_7vm_core15domain_services32performance_optimization_serviceNtB2_36PerformanceOptimizationDomainService28compare_performance_profiles
FN:782,_RNvMNtNtCsbkbnPoCG8ZW_7vm_core15domain_services32performance_optimization_serviceNtB2_36PerformanceOptimizationDomainService28estimate_optimization_impact
FN:721,_RNvMNtNtCsbkbnPoCG8ZW_7vm_core15domain_services32performance_optimization_serviceNtB2_36PerformanceOptimizationDomainService29estimate_strategy_improvement
FN:634,_RNvMNtNtCsbkbnPoCG8ZW_7vm_core15domain_services32performance_optimization_serviceNtB2_36PerformanceOptimizationDomainService30calculate_overall_impact_score
FN:997,_RNvMNtNtCsbkbnPoCG8ZW_7vm_core15domain_services32performance_optimization_serviceNtB2_36PerformanceOptimizationDomainService30estimate_optimization_timeline
FN:68,_RNvMNtNtCsbkbnPoCG8ZW_7vm_core15domain_services32performance_optimization_serviceNtB2_36PerformanceOptimizationDomainService31analyze_performance_bottlenecks
FN:525,_RNvMNtNtCsbkbnPoCG8ZW_7vm_core15domain_services32performance_optimization_serviceNtB2_36PerformanceOptimizationDomainService31analyze_translation_bottlenecks
FN:1131,_RNvMNtNtCsbkbnPoCG8ZW_7vm_core15domain_services32performance_optimization_serviceNtB2_36PerformanceOptimizationDomainService31calculate_actual_resource_usage
FN:1241,_RNvMNtNtCsbkbnPoCG8ZW_7vm_core15domain_services32performance_optimization_serviceNtB2_36PerformanceOptimizationDomainService31calculate_overall_effectiveness
FN:643,_RNvMNtNtCsbkbnPoCG8ZW_7vm_core15domain_services32performance_optimization_serviceNtB2_36PerformanceOptimizationDomainService31generate_domain_recommendations
FN:899,_RNvMNtNtCsbkbnPoCG8ZW_7vm_core15domain_services32performance_optimization_serviceNtB2_36PerformanceOptimizationDomainService31group_recommendations_by_domain
FN:167,_RNvMNtNtCsbkbnPoCG8ZW_7vm_core15domain_services32performance_optimization_serviceNtB2_36PerformanceOptimizationDomainService32create_unified_optimization_plan
FN:744,_RNvMNtNtCsbkbnPoCG8ZW_7vm_core15domain_services32performance_optimization_serviceNtB2_36PerformanceOptimizationDomainService33calculate_recommendation_priority
FN:122,_RNvMNtNtCsbkbnPoCG8ZW_7vm_core15domain_services32performance_optimization_serviceNtB2_36PerformanceOptimizationDomainService33recommend_optimization_strategies
FN:300,_RNvMNtNtCsbkbnPoCG8ZW_7vm_core15domain_services32performance_optimization_serviceNtB2_36PerformanceOptimizationDomainService34initialize_optimization_strategies
FN:255,_RNvMNtNtCsbkbnPoCG8ZW_7vm_core15domain_services32performance_optimization_serviceNtB2_36PerformanceOptimizationDomainService34monitor_optimization_effectiveness
FN:876,_RNvMNtNtCsbkbnPoCG8ZW_7vm_core15domain_services32performance_optimization_serviceNtB2_36PerformanceOptimizationDomainService35calculate_implementation_complexity
FN:983,_RNvMNtNtCsbkbnPoCG8ZW_7vm_core15domain_services32performance_optimization_serviceNtB2_36PerformanceOptimizationDomainService36calculate_plan_resource_requirements
FN:1261,_RNvMNtNtCsbkbnPoCG8ZW_7vm_core15domain_services32performance_optimization_serviceNtB2_36PerformanceOptimizationDomainService36generate_improvement_recommendations
FN:969,_RNvMNtNtCsbkbnPoCG8ZW_7vm_core15domain_services32performance_optimization_serviceNtB2_36PerformanceOptimizationDomainService37calculate_phase_resource_requirements
FN:32,_RNvMNtNtCsbkbnPoCG8ZW_7vm_core15domain_services32performance_optimization_serviceNtB2_36PerformanceOptimizationDomainService3new
FN:1703,_RNvMs0_NtNtCsbkbnPoCG8ZW_7vm_core15domain_services32performance_optimization_serviceNtB5_18BottleneckSeverity8priority
FN:1767,_RNvMs1_NtNtCsbkbnPoCG8ZW_7vm_core15domain_services32performance_optimization_serviceNtB5_24ImplementationComplexity15effort_estimate
FN:1759,_RNvMs1_NtNtCsbkbnPoCG8ZW_7vm_core15domain_services32performance_optimization_serviceNtB5_24ImplementationComplexity16complexity_score
FN:1791,_RNvMs2_NtNtCsbkbnPoCG8ZW_7vm_core15domain_services32performance_optimization_serviceNtB5_20ResourceRequirements13within_limits
FN:1785,_RNvMs2_NtNtCsbkbnPoCG8ZW_7vm_core15domain_services32performance_optimization_serviceNtB5_20ResourceRequirements5merge
FN:1362,_RNvXs_NtNtCsbkbnPoCG8ZW_7vm_core15domain_services32performance_optimization_serviceNtB4_36PerformanceOptimizationDomainServiceNtNtCskzPJi2J8k3N_4core7default7Default7default
FN:1094,_RNCNvMNtNtCsbkbnPoCG8ZW_7vm_core15domain_services32performance_optimization_serviceNtB4_36PerformanceOptimizationDomainService26calculate_phase_complexity0B8_
FN:1009,_RNCNvMNtNtCsbkbnPoCG8ZW_7vm_core15domain_services32performance_optimization_serviceNtB4_36PerformanceOptimizationDomainService30estimate_optimization_timelines_0B8_
FN:886,_RNCNvMNtNtCsbkbnPoCG8ZW_7vm_core15domain_services32performance_optimization_serviceNtB4_36PerformanceOptimizationDomainService35calculate_implementation_complexity0B8_
FN:627,_RNCNCNvMNtNtCsbkbnPoCG8ZW_7vm_core15domain_services32performance_optimization_serviceNtB6_36PerformanceOptimizationDomainService22prioritize_bottlenecks00Ba_
FN:771,_RNCNCNvMNtNtCsbkbnPoCG8ZW_7vm_core15domain_services32performance_optimization_serviceNtB6_36PerformanceOptimizationDomainService26prioritize_recommendations00Ba_
FN:623,_RNCNvMNtNtCsbkbnPoCG8ZW_7vm_core15domain_services32performance_optimization_serviceNtB4_36PerformanceOptimizationDomainService22prioritize_bottlenecks0B8_
FN:936,_RNCNvMNtNtCsbkbnPoCG8ZW_7vm_core15domain_services32performance_optimization_serviceNtB4_36PerformanceOptimizationDomainService26create_optimization_phases0B8_
FN:770,_RNCNvMNtNtCsbkbnPoCG8ZW_7vm_core15domain_services32performance_optimization_serviceNtB4_36PerformanceOptimizationDomainService26prioritize_recommendations0B8_
FNDA:0,_RNCNvMNtNtCsbkbnPoCG8ZW_7vm_core15domain_services32performance_optimization_serviceNtB4_36PerformanceOptimizationDomainService17assess_plan_risks0B8_
FNDA:0,_RNCNvMNtNtCsbkbnPoCG8ZW_7vm_core15domain_services32performance_optimization_serviceNtB4_36PerformanceOptimizationDomainService21identify_risk_factors0B8_
FNDA:0,_RNCNvMNtNtCsbkbnPoCG8ZW_7vm_core15domain_services32performance_optimization_serviceNtB4_36PerformanceOptimizationDomainService22strategy_matches_goals0B8_
FNDA:0,_RNCNvMNtNtCsbkbnPoCG8ZW_7vm_core15domain_services32performance_optimization_serviceNtB4_36PerformanceOptimizationDomainService31group_recommendations_by_domain0B8_
FNDA:0,_RNvMNtNtCsbkbnPoCG8ZW_7vm_core15domain_services32performance_optimization_serviceNtB2_36PerformanceOptimizationDomainService10with_rules
FNDA:0,_RNvMNtNtCsbkbnPoCG8ZW_7vm_core15domain_services32performance_optimization_serviceNtB2_36PerformanceOptimizationDomainService14with_event_bus
FNDA:0,_RNvMNtNtCsbkbnPoCG8ZW_7vm_core15domain_services32performance_optimization_serviceNtB2_36PerformanceOptimizationDomainService17assess_plan_risks
FNDA:0,_RNvMNtNtCsbkbnPoCG8ZW_7vm_core15domain_services32performance_optimization_serviceNtB2_36PerformanceOptimizationDomainService21identify_risk_factors
FNDA:0,_RNvMNtNtCsbkbnPoCG8ZW_7vm_core15domain_services32performance_optimization_serviceNtB2_36PerformanceOptimizationDomainService22analyze_io_bottlenecks
FNDA:0,_RNvMNtNtCsbkbnPoCG8ZW_7vm_core15domain_services32performance_optimization_serviceNtB2_36PerformanceOptimizationDomainService22prioritize_bottlenecks
FNDA:0,_RNvMNtNtCsbkbnPoCG8ZW_7vm_core15domain_services32performance_optimization_serviceNtB2_36PerformanceOptimizationDomainService22strategy_matches_goals
FNDA:0,_RNvMNtNtCsbkbnPoCG8ZW_7vm_core15domain_services32performance_optimization_serviceNtB2_36PerformanceOptimizationDomainService23analyze_cpu_bottlenecks
FNDA:0,_RNvMNtNtCsbkbnPoCG8ZW_7vm_core15domain_services32performance_optimization_serviceNtB2_36PerformanceOptimizationDomainService23estimate_phase_duration
FNDA:0,_RNvMNtNtCsbkbnPoCG8ZW_7vm_core15domain_services32performance_optimization_serviceNtB2_36PerformanceOptimizationDomainService24calculate_domain_impacts
FNDA:0,_RNvMNtNtCsbkbnPoCG8ZW_7vm_core15domain_services32performance_optimization_serviceNtB2_36PerformanceOptimizationDomainService25execute_optimization_plan
FNDA:0,_RNvMNtNtCsbkbnPoCG8ZW_7vm_core15domain_services32performance_optimization_serviceNtB2_36PerformanceOptimizationDomainService25validate_plan_feasibility
FNDA:0,_RNvMNtNtCsbkbnPoCG8ZW_7vm_core15domain_services32performance_optimization_serviceNtB2_36PerformanceOptimizationDomainService26analyze_memory_bottlenecks
FNDA:0,_RNvMNtNtCsbkbnPoCG8ZW_7vm_core15domain_services32performance_optimization_serviceNtB2_36PerformanceOptimizationDomainService26calculate_confidence_level
FNDA:0,_RNvMNtNtCsbkbnPoCG8ZW_7vm_core15domain_services32performance_optimization_serviceNtB2_36PerformanceOptimizationDomainService26calculate_optimization_roi
FNDA:0,_RNvMNtNtCsbkbnPoCG8ZW_7vm_core15domain_services32performance_optimization_serviceNtB2_36PerformanceOptimizationDomainService26calculate_phase_complexity
FNDA:0,_RNvMNtNtCsbkbnPoCG8ZW_7vm_core15domain_services32performance_optimization_serviceNtB2_36PerformanceOptimizationDomainService26create_optimization_phases
FNDA:0,_RNvMNtNtCsbkbnPoCG8ZW_7vm_core15domain_services32performance_optimization_serviceNtB2_36PerformanceOptimizationDomainService26execute_optimization_phase
FNDA:0,_RNvMNtNtCsbkbnPoCG8ZW_7vm_core15domain_services32performance_optimization_serviceNtB2_36PerformanceOptimizationDomainService26prioritize_recommendations
FNDA:0,_RNvMNtNtCsbkbnPoCG8ZW_7vm_core15domain_services32performance_optimization_serviceNtB2_36PerformanceOptimizationDomainService26publish_optimization_event
FNDA:0,_RNvMNtNtCsbkbnPoCG8ZW_7vm_core15domain_services32performance_optimization_serviceNtB2_36PerformanceOptimizationDomainService26strategy_meets_constraints
FNDA:0,_RNvMNtNtCsbkbnPoCG8ZW_7vm_core15domain_services32performance_optimization_serviceNtB2_36PerformanceOptimizationDomainService28analyze_domain_effectiveness
FNDA:0,_RNvMNtNtCsbkbnPoCG8ZW_7vm_core15domain_services32performance_optimization_serviceNtB2_36PerformanceOptimizationDomainService28compare_performance_profiles
FNDA:0,_RNvMNtNtCsbkbnPoCG8ZW_7vm_core15domain_services32performance_optimization_serviceNtB2_36PerformanceOptimizationDomainService28estimate_optimization_impact
FNDA:0,_RNvMNtNtCsbkbnPoCG8ZW_7vm_core15domain_services32performance_optimization_serviceNtB2_36PerformanceOptimizationDomainService29estimate_strategy_improvement
FNDA:0,_RNvMNtNtCsbkbnPoCG8ZW_7vm_core15domain_services32performance_optimization_serviceNtB2_36PerformanceOptimizationDomainService30calculate_overall_impact_score
FNDA:0,_RNvMNtNtCsbkbnPoCG8ZW_7vm_core15domain_services32performance_optimization_serviceNtB2_36PerformanceOptimizationDomainService30estimate_optimization_timeline
FNDA:0,_RNvMNtNtCsbkbnPoCG8ZW_7vm_core15domain_services32performance_optimization_serviceNtB2_36PerformanceOptimizationDomainService31analyze_performance_bottlenecks
FNDA:0,_RNvMNtNtCsbkbnPoCG8ZW_7vm_core15domain_services32performance_optimization_serviceNtB2_36PerformanceOptimizationDomainService31analyze_translation_bottlenecks
FNDA:0,_RNvMNtNtCsbkbnPoCG8ZW_7vm_core15domain_services32performance_optimization_serviceNtB2_36PerformanceOptimizationDomainService31calculate_actual_resource_usage
FNDA:0,_RNvMNtNtCsbkbnPoCG8ZW_7vm_core15domain_services32performance_optimization_serviceNtB2_36PerformanceOptimizationDomainService31calculate_overall_effectiveness
FNDA:0,_RNvMNtNtCsbkbnPoCG8ZW_7vm_core15domain_services32performance_optimization_serviceNtB2_36PerformanceOptimizationDomainService31generate_domain_recommendations
FNDA:0,_RNvMNtNtCsbkbnPoCG8ZW_7vm_core15domain_services32performance_optimization_serviceNtB2_36PerformanceOptimizationDomainService31group_recommendations_by_domain
FNDA:0,_RNvMNtNtCsbkbnPoCG8ZW_7vm_core15domain_services32performance_optimization_serviceNtB2_36PerformanceOptimizationDomainService32create_unified_optimization_plan
FNDA:0,_RNvMNtNtCsbkbnPoCG8ZW_7vm_core15domain_services32performance_optimization_serviceNtB2_36PerformanceOptimizationDomainService33calculate_recommendation_priority
FNDA:0,_RNvMNtNtCsbkbnPoCG8ZW_7vm_core15domain_services32performance_optimization_serviceNtB2_36PerformanceOptimizationDomainService33recommend_optimization_strategies
FNDA:0,_RNvMNtNtCsbkbnPoCG8ZW_7vm_core15domain_services32performance_optimization_serviceNtB2_36PerformanceOptimizationDomainService34initialize_optimization_strategies
FNDA:0,_RNvMNtNtCsbkbnPoCG8ZW_7vm_core15domain_services32performance_optimization_serviceNtB2_36PerformanceOptimizationDomainService34monitor_optimization_effectiveness
FNDA:0,_RNvMNtNtCsbkbnPoCG8ZW_7vm_core15domain_services32performance_optimization_serviceNtB2_36PerformanceOptimizationDomainService35calculate_implementation_complexity
FNDA:0,_RNvMNtNtCsbkbnPoCG8ZW_7vm_core15domain_services32performance_optimization_serviceNtB2_36PerformanceOptimizationDomainService36calculate_plan_resource_requirements
FNDA:0,_RNvMNtNtCsbkbnPoCG8ZW_7vm_core15domain_services32performance_optimization_serviceNtB2_36PerformanceOptimizationDomainService36generate_improvement_recommendations
FNDA:0,_RNvMNtNtCsbkbnPoCG8ZW_7vm_core15domain_services32performance_optimization_serviceNtB2_36PerformanceOptimizationDomainService37calculate_phase_resource_requirements
FNDA:0,_RNvMNtNtCsbkbnPoCG8ZW_7vm_core15domain_services32performance_optimization_serviceNtB2_36PerformanceOptimizationDomainService3new
FNDA:0,_RNvMs0_NtNtCsbkbnPoCG8ZW_7vm_core15domain_services32performance_optimization_serviceNtB5_18BottleneckSeverity8priority
FNDA:0,_RNvMs1_NtNtCsbkbnPoCG8ZW_7vm_core15domain_services32performance_optimization_serviceNtB5_24ImplementationComplexity15effort_estimate
FNDA:0,_RNvMs1_NtNtCsbkbnPoCG8ZW_7vm_core15domain_services32performance_optimization_serviceNtB5_24ImplementationComplexity16complexity_score
FNDA:0,_RNvMs2_NtNtCsbkbnPoCG8ZW_7vm_core15domain_services32performance_optimization_serviceNtB5_20ResourceRequirements13within_limits
FNDA:0,_RNvMs2_NtNtCsbkbnPoCG8ZW_7vm_core15domain_services32performance_optimization_serviceNtB5_20ResourceRequirements5merge
FNDA:0,_RNvXs_NtNtCsbkbnPoCG8ZW_7vm_core15domain_services32performance_optimization_serviceNtB4_36PerformanceOptimizationDomainServiceNtNtCskzPJi2J8k3N_4core7default7Default7default
FNDA:0,_RNCNvMNtNtCsbkbnPoCG8ZW_7vm_core15domain_services32performance_optimization_serviceNtB4_36PerformanceOptimizationDomainService26calculate_phase_complexity0B8_
FNDA:0,_RNCNvMNtNtCsbkbnPoCG8ZW_7vm_core15domain_services32performance_optimization_serviceNtB4_36PerformanceOptimizationDomainService30estimate_optimization_timelines_0B8_
FNDA:0,_RNCNvMNtNtCsbkbnPoCG8ZW_7vm_core15domain_services32performance_optimization_serviceNtB4_36PerformanceOptimizationDomainService35calculate_implementation_complexity0B8_
FNDA:0,_RNCNCNvMNtNtCsbkbnPoCG8ZW_7vm_core15domain_services32performance_optimization_serviceNtB6_36PerformanceOptimizationDomainService22prioritize_bottlenecks00Ba_
FNDA:0,_RNCNCNvMNtNtCsbkbnPoCG8ZW_7vm_core15domain_services32performance_optimization_serviceNtB6_36PerformanceOptimizationDomainService26prioritize_recommendations00Ba_
FNDA:0,_RNCNvMNtNtCsbkbnPoCG8ZW_7vm_core15domain_services32performance_optimization_serviceNtB4_36PerformanceOptimizationDomainService22prioritize_bottlenecks0B8_
FNDA:0,_RNCNvMNtNtCsbkbnPoCG8ZW_7vm_core15domain_services32performance_optimization_serviceNtB4_36PerformanceOptimizationDomainService26create_optimization_phases0B8_
FNDA:0,_RNCNvMNtNtCsbkbnPoCG8ZW_7vm_core15domain_services32performance_optimization_serviceNtB4_36PerformanceOptimizationDomainService26prioritize_recommendations0B8_
FNF:61
FNH:0
DA:32,0
DA:33,0
DA:34,0
DA:35,0
DA:36,0
DA:37,0
DA:38,0
DA:41,0
DA:43,0
DA:44,0
DA:47,0
DA:48,0
DA:49,0
DA:50,0
DA:51,0
DA:52,0
DA:53,0
DA:56,0
DA:58,0
DA:59,0
DA:62,0
DA:63,0
DA:64,0
DA:65,0
DA:68,0
DA:69,0
DA:70,0
DA:71,0
DA:72,0
DA:74,0
DA:75,0
DA:79,0
DA:82,0
DA:85,0
DA:88,0
DA:91,0
DA:92,0
DA:93,0
DA:94,0
DA:95,0
DA:96,0
DA:98,0
DA:99,0
DA:100,0
DA:101,0
DA:102,0
DA:103,0
DA:104,0
DA:105,0
DA:106,0
DA:109,0
DA:110,0
DA:111,0
DA:112,0
DA:113,0
DA:114,0
DA:115,0
DA:116,0
DA:118,0
DA:119,0
DA:122,0
DA:123,0
DA:124,0
DA:125,0
DA:126,0
DA:127,0
DA:129,0
DA:131,0
DA:132,0
DA:133,0
DA:135,0
DA:139,0
DA:140,0
DA:143,0
DA:144,0
DA:146,0
DA:147,0
DA:148,0
DA:149,0
DA:150,0
DA:151,0
DA:152,0
DA:153,0
DA:156,0
DA:157,0
DA:158,0
DA:159,0
DA:160,0
DA:161,0
DA:163,0
DA:164,0
DA:167,0
DA:168,0
DA:169,0
DA:170,0
DA:171,0
DA:173,0
DA:176,0
DA:179,0
DA:182,0
DA:185,0
DA:187,0
DA:188,0
DA:189,0
DA:190,0
DA:191,0
DA:192,0
DA:193,0
DA:194,0
DA:197,0
DA:198,0
DA:199,0
DA:200,0
DA:201,0
DA:202,0
DA:204,0
DA:205,0
DA:208,0
DA:209,0
DA:210,0
DA:211,0
DA:212,0
DA:213,0
DA:214,0
DA:215,0
DA:218,0
DA:219,0
DA:221,0
DA:222,0
DA:223,0
DA:225,0
DA:226,0
DA:229,0
DA:230,0
DA:231,0
DA:232,0
DA:233,0
DA:234,0
DA:235,0
DA:236,0
DA:238,0
DA:240,0
DA:244,0
DA:245,0
DA:246,0
DA:247,0
DA:248,0
DA:249,0
DA:251,0
DA:252,0
DA:255,0
DA:256,0
DA:257,0
DA:258,0
DA:259,0
DA:261,0
DA:262,0
DA:263,0
DA:264,0
DA:267,0
DA:268,0
DA:271,0
DA:272,0
DA:275,0
DA:276,0
DA:278,0
DA:279,0
DA:280,0
DA:281,0
DA:282,0
DA:283,0
DA:284,0
DA:285,0
DA:286,0
DA:289,0
DA:290,0
DA:291,0
DA:292,0
DA:293,0
DA:294,0
DA:296,0
DA:297,0
DA:300,0
DA:302,0
DA:303,0
DA:304,0
DA:305,0
DA:306,0
DA:307,0
DA:308,0
DA:309,0
DA:310,0
DA:311,0
DA:312,0
DA:313,0
DA:314,0
DA:315,0
DA:316,0
DA:317,0
DA:318,0
DA:319,0
DA:320,0
DA:321,0
DA:322,0
DA:323,0
DA:324,0
DA:325,0
DA:326,0
DA:331,0
DA:332,0
DA:333,0
DA:334,0
DA:335,0
DA:336,0
DA:337,0
DA:338,0
DA:339,0
DA:340,0
DA:341,0
DA:342,0
DA:343,0
DA:344,0
DA:345,0
DA:346,0
DA:347,0
DA:348,0
DA:349,0
DA:350,0
DA:351,0
DA:352,0
DA:353,0
DA:354,0
DA:355,0
DA:360,0
DA:361,0
DA:362,0
DA:363,0
DA:364,0
DA:365,0
DA:366,0
DA:367,0
DA:368,0
DA:369,0
DA:370,0
DA:371,0
DA:372,0
DA:373,0
DA:374,0
DA:375,0
DA:376,0
DA:377,0
DA:378,0
DA:379,0
DA:380,0
DA:381,0
DA:382,0
DA:383,0
DA:384,0
DA:387,0
DA:390,0
DA:391,0
DA:394,0
DA:395,0
DA:396,0
DA:397,0
DA:398,0
DA:400,0
DA:402,0
DA:403,0
DA:405,0
DA:408,0
DA:409,0
DA:410,0
DA:411,0
DA:412,0
DA:414,0
DA:416,0
DA:417,0
DA:418,0
DA:420,0
DA:422,0
DA:425,0
DA:426,0
DA:427,0
DA:428,0
DA:429,0
DA:431,0
DA:433,0
DA:434,0
DA:435,0
DA:437,0
DA:439,0
DA:441,0
DA:442,0
DA:445,0
DA:446,0
DA:447,0
DA:448,0
DA:449,0
DA:452,0
DA:453,0
DA:454,0
DA:455,0
DA:456,0
DA:458,0
DA:460,0
DA:461,0
DA:463,0
DA:466,0
DA:467,0
DA:468,0
DA:469,0
DA:470,0
DA:472,0
DA:474,0
DA:475,0
DA:476,0
DA:478,0
DA:480,0
DA:483,0
DA:485,0
DA:486,0
DA:487,0
DA:488,0
DA:490,0
DA:492,0
DA:493,0
DA:496,0
DA:498,0
DA:500,0
DA:501,0
DA:504,0
DA:505,0
DA:508,0
DA:509,0
DA:510,0
DA:511,0
DA:512,0
DA:514,0
DA:516,0
DA:517,0
DA:519,0
DA:521,0
DA:522,0
DA:525,0
DA:526,0
DA:527,0
DA:528,0
DA:529,0
DA:532,0
DA:533,0
DA:534,0
DA:535,0
DA:536,0
DA:538,0
DA:540,0
DA:541,0
DA:542,0
DA:544,0
DA:546,0
DA:549,0
DA:550,0
DA:551,0
DA:552,0
DA:553,0
DA:555,0
DA:557,0
DA:558,0
DA:559,0
DA:561,0
DA:563,0
DA:565,0
DA:566,0
DA:569,0
DA:570,0
DA:571,0
DA:572,0
DA:573,0
DA:574,0
DA:575,0
DA:576,0
DA:579,0
DA:580,0
DA:581,0
DA:582,0
DA:583,0
DA:584,0
DA:585,0
DA:586,0
DA:587,0
DA:590,0
DA:591,0
DA:592,0
DA:593,0
DA:594,0
DA:595,0
DA:596,0
DA:597,0
DA:598,0
DA:601,0
DA:602,0
DA:603,0
DA:604,0
DA:605,0
DA:606,0
DA:607,0
DA:608,0
DA:609,0
DA:612,0
DA:613,0
DA:614,0
DA:615,0
DA:616,0
DA:617,0
DA:618,0
DA:619,0
DA:620,0
DA:623,0
DA:624,0
DA:625,0
DA:626,0
DA:627,0
DA:628,0
DA:630,0
DA:631,0
DA:634,0
DA:635,0
DA:636,0
DA:637,0
DA:639,0
DA:640,0
DA:643,0
DA:644,0
DA:645,0
DA:646,0
DA:647,0
DA:648,0
DA:649,0
DA:652,0
DA:653,0
DA:655,0
DA:657,0
DA:658,0
DA:659,0
DA:660,0
DA:661,0
DA:662,0
DA:663,0
DA:664,0
DA:665,0
DA:666,0
DA:667,0
DA:668,0
DA:669,0
DA:670,0
DA:672,0
DA:674,0
DA:675,0
DA:678,0
DA:679,0
DA:680,0
DA:681,0
DA:682,0
DA:683,0
DA:684,0
DA:685,0
DA:686,0
DA:688,0
DA:691,0
DA:693,0
DA:694,0
DA:697,0
DA:698,0
DA:699,0
DA:700,0
DA:701,0
DA:703,0
DA:704,0
DA:706,0
DA:707,0
DA:710,0
DA:711,0
DA:712,0
DA:714,0
DA:715,0
DA:717,0
DA:718,0
DA:721,0
DA:722,0
DA:723,0
DA:724,0
DA:725,0
DA:726,0
DA:727,0
DA:728,0
DA:729,0
DA:733,0
DA:734,0
DA:735,0
DA:736,0
DA:737,0
DA:740,0
DA:741,0
DA:744,0
DA:745,0
DA:746,0
DA:747,0
DA:748,0
DA:749,0
DA:750,0
DA:751,0
DA:752,0
DA:755,0
DA:758,0
DA:759,0
DA:762,0
DA:763,0
DA:764,0
DA:765,0
DA:766,0
DA:767,0
DA:770,0
DA:771,0
DA:772,0
DA:773,0
DA:774,0
DA:775,0
DA:776,0
DA:778,0
DA:779,0
DA:782,0
DA:783,0
DA:784,0
DA:785,0
DA:786,0
DA:787,0
DA:788,0
DA:789,0
DA:790,0
DA:792,0
DA:794,0
DA:795,0
DA:796,0
DA:797,0
DA:798,0
DA:799,0
DA:800,0
DA:803,0
DA:804,0
DA:805,0
DA:806,0
DA:807,0
DA:809,0
DA:810,0
DA:811,0
DA:812,0
DA:813,0
DA:814,0
DA:816,0
DA:817,0
DA:820,0
DA:821,0
DA:822,0
DA:823,0
DA:824,0
DA:825,0
DA:826,0
DA:827,0
DA:830,0
DA:831,0
DA:833,0
DA:834,0
DA:837,0
DA:838,0
DA:839,0
DA:840,0
DA:841,0
DA:844,0
DA:845,0
DA:846,0
DA:847,0
DA:848,0
DA:849,0
DA:850,0
DA:851,0
DA:855,0
DA:856,0
DA:857,0
DA:858,0
DA:859,0
DA:860,0
DA:862,0
DA:863,0
DA:864,0
DA:865,0
DA:866,0
DA:867,0
DA:868,0
DA:869,0
DA:872,0
DA:873,0
DA:876,0
DA:877,0
DA:878,0
DA:879,0
DA:880,0
DA:881,0
DA:882,0
DA:884,0
DA:885,0
DA:886,0
DA:887,0
DA:889,0
DA:891,0
DA:892,0
DA:893,0
DA:894,0
DA:896,0
DA:899,0
DA:900,0
DA:901,0
DA:902,0
DA:903,0
DA:904,0
DA:905,0
DA:906,0
DA:907,0
DA:908,0
DA:909,0
DA:912,0
DA:913,0
DA:914,0
DA:915,0
DA:916,0
DA:917,0
DA:920,0
DA:921,0
DA:922,0
DA:923,0
DA:925,0
DA:926,0
DA:927,0
DA:928,0
DA:929,0
DA:930,0
DA:931,0
DA:932,0
DA:936,0
DA:937,0
DA:938,0
DA:939,0
DA:940,0
DA:941,0
DA:942,0
DA:944,0
DA:945,0
DA:946,0
DA:947,0
DA:948,0
DA:949,0
DA:951,0
DA:952,0
DA:954,0
DA:955,0
DA:958,0
DA:959,0
DA:960,0
DA:961,0
DA:962,0
DA:965,0
DA:966,0
DA:969,0
DA:970,0
DA:971,0
DA:972,0
DA:973,0
DA:975,0
DA:976,0
DA:977,0
DA:979,0
DA:980,0
DA:983,0
DA:984,0
DA:985,0
DA:986,0
DA:987,0
DA:989,0
DA:990,0
DA:991,0
DA:993,0
DA:994,0
DA:997,0
DA:998,0
DA:999,0
DA:1000,0
DA:1001,0
DA:1004,0
DA:1005,0
DA:1006,0
DA:1007,0
DA:1008,0
DA:1009,0
DA:1010,0
DA:1011,0
DA:1012,0
DA:1013,0
DA:1015,0
DA:1018,0
DA:1019,0
DA:1020,0
DA:1021,0
DA:1022,0
DA:1024,0
DA:1026,0
DA:1027,0
DA:1029,0
DA:1030,0
DA:1031,0
DA:1032,0
DA:1033,0
DA:1034,0
DA:1035,0
DA:1036,0
DA:1038,0
DA:1039,0
DA:1042,0
DA:1043,0
DA:1046,0
DA:1047,0
DA:1049,0
DA:1050,0
DA:1051,0
DA:1052,0
DA:1053,0
DA:1054,0
DA:1055,0
DA:1056,0
DA:1057,0
DA:1058,0
DA:1059,0
DA:1063,0
DA:1064,0
DA:1065,0
DA:1066,0
DA:1067,0
DA:1068,0
DA:1069,0
DA:1071,0
DA:1072,0
DA:1073,0
DA:1074,0
DA:1075,0
DA:1076,0
DA:1077,0
DA:1078,0
DA:1080,0
DA:1081,0
DA:1084,0
DA:1085,0
DA:1086,0
DA:1087,0
DA:1088,0
DA:1089,0
DA:1090,0
DA:1092,0
DA:1093,0
DA:1094,0
DA:1095,0
DA:1097,0
DA:1099,0
DA:1100,0
DA:1101,0
DA:1102,0
DA:1104,0
DA:1107,0
DA:1108,0
DA:1109,0
DA:1110,0
DA:1111,0
DA:1116,0
DA:1117,0
DA:1119,0
DA:1120,0
DA:1121,0
DA:1122,0
DA:1123,0
DA:1125,0
DA:1126,0
DA:1128,0
DA:1131,0
DA:1132,0
DA:1133,0
DA:1134,0
DA:1135,0
DA:1136,0
DA:1138,0
DA:1139,0
DA:1140,0
DA:1141,0
DA:1142,0
DA:1143,0
DA:1146,0
DA:1147,0
DA:1148,0
DA:1149,0
DA:1150,0
DA:1151,0
DA:1152,0
DA:1154,0
DA:1157,0
DA:1158,0
DA:1160,0
DA:1163,0
DA:1164,0
DA:1165,0
DA:1167,0
DA:1170,0
DA:1171,0
DA:1173,0
DA:1174,0
DA:1175,0
DA:1176,0
DA:1177,0
DA:1178,0
DA:1179,0
DA:1182,0
DA:1183,0
DA:1184,0
DA:1185,0
DA:1186,0
DA:1187,0
DA:1190,0
DA:1191,0
DA:1193,0
DA:1194,0
DA:1195,0
DA:1196,0
DA:1197,0
DA:1198,0
DA:1200,0
DA:1206,0
DA:1207,0
DA:1209,0
DA:1210,0
DA:1211,0
DA:1212,0
DA:1213,0
DA:1214,0
DA:1216,0
DA:1222,0
DA:1223,0
DA:1225,0
DA:1226,0
DA:1227,0
DA:1228,0
DA:1229,0
DA:1230,0
DA:1232,0
DA:1237,0
DA:1238,0
DA:1241,0
DA:1242,0
DA:1243,0
DA:1244,0
DA:1245,0
DA:1246,0
DA:1247,0
DA:1248,0
DA:1249,0
DA:1251,0
DA:1253,0
DA:1254,0
DA:1256,0
DA:1258,0
DA:1261,0
DA:1262,0
DA:1263,0
DA:1264,0
DA:1265,0
DA:1266,0
DA:1269,0
DA:1270,0
DA:1271,0
DA:1272,0
DA:1273,0
DA:1274,0
DA:1275,0
DA:1276,0
DA:1277,0
DA:1278,0
DA:1279,0
DA:1280,0
DA:1284,0
DA:1285,0
DA:1286,0
DA:1287,0
DA:1288,0
DA:1289,0
DA:1290,0
DA:1291,0
DA:1292,0
DA:1294,0
DA:1295,0
DA:1296,0
DA:1297,0
DA:1298,0
DA:1299,0
DA:1300,0
DA:1301,0
DA:1302,0
DA:1303,0
DA:1305,0
DA:1306,0
DA:1307,0
DA:1308,0
DA:1309,0
DA:1310,0
DA:1311,0
DA:1312,0
DA:1313,0
DA:1314,0
DA:1316,0
DA:1317,0
DA:1320,0
DA:1321,0
DA:1322,0
DA:1323,0
DA:1324,0
DA:1326,0
DA:1329,0
DA:1332,0
DA:1333,0
DA:1335,0
DA:1339,0
DA:1340,0
DA:1341,0
DA:1342,0
DA:1343,0
DA:1345,0
DA:1348,0
DA:1351,0
DA:1352,0
DA:1353,0
DA:1354,0
DA:1355,0
DA:1356,0
DA:1357,0
DA:1362,0
DA:1363,0
DA:1364,0
DA:1703,0
DA:1704,0
DA:1705,0
DA:1706,0
DA:1707,0
DA:1708,0
DA:1710,0
DA:1759,0
DA:1760,0
DA:1761,0
DA:1762,0
DA:1763,0
DA:1765,0
DA:1767,0
DA:1768,0
DA:1769,0
DA:1770,0
DA:1771,0
DA:1773,0
DA:1785,0
DA:1786,0
DA:1787,0
DA:1788,0
DA:1789,0
DA:1791,0
DA:1792,0
DA:1793,0
DA:1794,0
DA:1795,0
BRF:0
BRH:0
LF:990
LH:0
end_of_record
SF:/Users/didi/Desktop/vm/vm-core/src/domain_services/resource_management_service.rs
FN:617,_RNCNvMs0_NtNtCsbkbnPoCG8ZW_7vm_core15domain_services27resource_management_serviceNtB7_31ResourceManagementDomainService17release_resources0Bb_
FN:544,_RNCNvMs0_NtNtCsbkbnPoCG8ZW_7vm_core15domain_services27resource_management_serviceNtB7_31ResourceManagementDomainService18allocate_resources0Bb_
FN:565,_RNCNvMs0_NtNtCsbkbnPoCG8ZW_7vm_core15domain_services27resource_management_serviceNtB7_31ResourceManagementDomainService18allocate_resourcess_0Bb_
FN:297,_RNvMNtNtCsbkbnPoCG8ZW_7vm_core15domain_services27resource_management_serviceNtB2_18ResourceConstraint12is_exhausted
FN:287,_RNvMNtNtCsbkbnPoCG8ZW_7vm_core15domain_services27resource_management_serviceNtB2_18ResourceConstraint16is_warning_level
FN:292,_RNvMNtNtCsbkbnPoCG8ZW_7vm_core15domain_services27resource_management_serviceNtB2_18ResourceConstraint17is_critical_level
FN:278,_RNvMNtNtCsbkbnPoCG8ZW_7vm_core15domain_services27resource_management_serviceNtB2_18ResourceConstraint17utilization_ratio
FN:260,_RNvMNtNtCsbkbnPoCG8ZW_7vm_core15domain_services27resource_management_serviceNtB2_18ResourceConstraint3new
FN:501,_RNvMs0_NtNtCsbkbnPoCG8ZW_7vm_core15domain_services27resource_management_serviceNtB5_31ResourceManagementDomainService13set_event_bus
FN:496,_RNvMs0_NtNtCsbkbnPoCG8ZW_7vm_core15domain_services27resource_management_serviceNtB5_31ResourceManagementDomainService17add_business_rule
FN:608,_RNvMs0_NtNtCsbkbnPoCG8ZW_7vm_core15domain_services27resource_management_serviceNtB5_31ResourceManagementDomainService17release_resources
FN:640,_RNvMs0_NtNtCsbkbnPoCG8ZW_7vm_core15domain_services27resource_management_serviceNtB5_31ResourceManagementDomainService17should_trigger_gc
FN:532,_RNvMs0_NtNtCsbkbnPoCG8ZW_7vm_core15domain_services27resource_management_serviceNtB5_31ResourceManagementDomainService18allocate_resources
FN:795,_RNvMs0_NtNtCsbkbnPoCG8ZW_7vm_core15domain_services27resource_management_serviceNtB5_31ResourceManagementDomainService22create_pipeline_config
FN:649,_RNvMs0_NtNtCsbkbnPoCG8ZW_7vm_core15domain_services27resource_management_serviceNtB5_31ResourceManagementDomainService24get_resource_utilization
FN:807,_RNvMs0_NtNtCsbkbnPoCG8ZW_7vm_core15domain_services27resource_management_serviceNtB5_31ResourceManagementDomainService26publish_optimization_event
FN:699,_RNvMs0_NtNtCsbkbnPoCG8ZW_7vm_core15domain_services27resource_management_serviceNtB5_31ResourceManagementDomainService28allocate_optimization_budget
FN:657,_RNvMs0_NtNtCsbkbnPoCG8ZW_7vm_core15domain_services27resource_management_serviceNtB5_31ResourceManagementDomainService29update_performance_thresholds
FN:506,_RNvMs0_NtNtCsbkbnPoCG8ZW_7vm_core15domain_services27resource_management_serviceNtB5_31ResourceManagementDomainService29validate_resource_constraints
FN:484,_RNvMs0_NtNtCsbkbnPoCG8ZW_7vm_core15domain_services27resource_management_serviceNtB5_31ResourceManagementDomainService3new
FN:391,_RNvXs_NtNtCsbkbnPoCG8ZW_7vm_core15domain_services27resource_management_serviceNtB4_24ResourceManagementConfigNtNtCskzPJi2J8k3N_4core7default7Default7default
FN:519,_RNCNvMs0_NtNtCsbkbnPoCG8ZW_7vm_core15domain_services27resource_management_serviceNtB7_31ResourceManagementDomainService29validate_resource_constraints0Bb_
FN:652,_RNCNvMs0_NtNtCsbkbnPoCG8ZW_7vm_core15domain_services27resource_management_serviceNtB7_31ResourceManagementDomainService24get_resource_utilization0Bb_
FNDA:0,_RNCNvMs0_NtNtCsbkbnPoCG8ZW_7vm_core15domain_services27resource_management_serviceNtB7_31ResourceManagementDomainService17release_resources0Bb_
FNDA:0,_RNCNvMs0_NtNtCsbkbnPoCG8ZW_7vm_core15domain_services27resource_management_serviceNtB7_31ResourceManagementDomainService18allocate_resources0Bb_
FNDA:0,_RNCNvMs0_NtNtCsbkbnPoCG8ZW_7vm_core15domain_services27resource_management_serviceNtB7_31ResourceManagementDomainService18allocate_resourcess_0Bb_
FNDA:0,_RNvMNtNtCsbkbnPoCG8ZW_7vm_core15domain_services27resource_management_serviceNtB2_18ResourceConstraint12is_exhausted
FNDA:0,_RNvMNtNtCsbkbnPoCG8ZW_7vm_core15domain_services27resource_management_serviceNtB2_18ResourceConstraint16is_warning_level
FNDA:0,_RNvMNtNtCsbkbnPoCG8ZW_7vm_core15domain_services27resource_management_serviceNtB2_18ResourceConstraint17is_critical_level
FNDA:0,_RNvMNtNtCsbkbnPoCG8ZW_7vm_core15domain_services27resource_management_serviceNtB2_18ResourceConstraint17utilization_ratio
FNDA:0,_RNvMNtNtCsbkbnPoCG8ZW_7vm_core15domain_services27resource_management_serviceNtB2_18ResourceConstraint3new
FNDA:0,_RNvMs0_NtNtCsbkbnPoCG8ZW_7vm_core15domain_services27resource_management_serviceNtB5_31ResourceManagementDomainService13set_event_bus
FNDA:0,_RNvMs0_NtNtCsbkbnPoCG8ZW_7vm_core15domain_services27resource_management_serviceNtB5_31ResourceManagementDomainService17add_business_rule
FNDA:0,_RNvMs0_NtNtCsbkbnPoCG8ZW_7vm_core15domain_services27resource_management_serviceNtB5_31ResourceManagementDomainService17release_resources
FNDA:0,_RNvMs0_NtNtCsbkbnPoCG8ZW_7vm_core15domain_services27resource_management_serviceNtB5_31ResourceManagementDomainService17should_trigger_gc
FNDA:0,_RNvMs0_NtNtCsbkbnPoCG8ZW_7vm_core15domain_services27resource_management_serviceNtB5_31ResourceManagementDomainService18allocate_resources
FNDA:0,_RNvMs0_NtNtCsbkbnPoCG8ZW_7vm_core15domain_services27resource_management_serviceNtB5_31ResourceManagementDomainService22create_pipeline_config
FNDA:0,_RNvMs0_NtNtCsbkbnPoCG8ZW_7vm_core15domain_services27resource_management_serviceNtB5_31ResourceManagementDomainService24get_resource_utilization
FNDA:0,_RNvMs0_NtNtCsbkbnPoCG8ZW_7vm_core15domain_services27resource_management_serviceNtB5_31ResourceManagementDomainService26publish_optimization_event
FNDA:0,_RNvMs0_NtNtCsbkbnPoCG8ZW_7vm_core15domain_services27resource_management_serviceNtB5_31ResourceManagementDomainService28allocate_optimization_budget
FNDA:0,_RNvMs0_NtNtCsbkbnPoCG8ZW_7vm_core15domain_services27resource_management_serviceNtB5_31ResourceManagementDomainService29update_performance_thresholds
FNDA:0,_RNvMs0_NtNtCsbkbnPoCG8ZW_7vm_core15domain_services27resource_management_serviceNtB5_31ResourceManagementDomainService29validate_resource_constraints
FNDA:0,_RNvMs0_NtNtCsbkbnPoCG8ZW_7vm_core15domain_services27resource_management_serviceNtB5_31ResourceManagementDomainService3new
FNDA:0,_RNvXs_NtNtCsbkbnPoCG8ZW_7vm_core15domain_services27resource_management_serviceNtB4_24ResourceManagementConfigNtNtCskzPJi2J8k3N_4core7default7Default7default
FNDA:0,_RNCNvMs0_NtNtCsbkbnPoCG8ZW_7vm_core15domain_services27resource_management_serviceNtB7_31ResourceManagementDomainService29validate_resource_constraints0Bb_
FNDA:0,_RNCNvMs0_NtNtCsbkbnPoCG8ZW_7vm_core15domain_services27resource_management_serviceNtB7_31ResourceManagementDomainService24get_resource_utilization0Bb_
FNF:23
FNH:0
DA:260,0
DA:261,0
DA:262,0
DA:263,0
DA:264,0
DA:265,0
DA:266,0
DA:267,0
DA:268,0
DA:269,0
DA:270,0
DA:271,0
DA:272,0
DA:273,0
DA:274,0
DA:275,0
DA:278,0
DA:279,0
DA:280,0
DA:282,0
DA:284,0
DA:287,0
DA:288,0
DA:289,0
DA:292,0
DA:293,0
DA:294,0
DA:297,0
DA:298,0
DA:299,0
DA:391,0
DA:392,0
DA:395,0
DA:396,0
DA:397,0
DA:398,0
DA:399,0
DA:402,0
DA:407,0
DA:408,0
DA:409,0
DA:413,0
DA:414,0
DA:415,0
DA:416,0
DA:417,0
DA:420,0
DA:424,0
DA:427,0
DA:428,0
DA:429,0
DA:430,0
DA:431,0
DA:432,0
DA:433,0
DA:434,0
DA:435,0
DA:439,0
DA:440,0
DA:441,0
DA:442,0
DA:443,0
DA:444,0
DA:445,0
DA:446,0
DA:447,0
DA:450,0
DA:451,0
DA:452,0
DA:453,0
DA:454,0
DA:455,0
DA:456,0
DA:457,0
DA:458,0
DA:459,0
DA:460,0
DA:461,0
DA:462,0
DA:463,0
DA:484,0
DA:485,0
DA:487,0
DA:488,0
DA:489,0
DA:490,0
DA:491,0
DA:492,0
DA:493,0
DA:496,0
DA:497,0
DA:498,0
DA:501,0
DA:502,0
DA:503,0
DA:506,0
DA:507,0
DA:509,0
DA:510,0
DA:511,0
DA:512,0
DA:516,0
DA:517,0
DA:518,0
DA:519,0
DA:520,0
DA:522,0
DA:523,0
DA:524,0
DA:525,0
DA:526,0
DA:528,0
DA:529,0
DA:532,0
DA:533,0
DA:534,0
DA:535,0
DA:537,0
DA:538,0
DA:541,0
DA:542,0
DA:543,0
DA:544,0
DA:545,0
DA:546,0
DA:547,0
DA:548,0
DA:549,0
DA:550,0
DA:551,0
DA:552,0
DA:554,0
DA:555,0
DA:556,0
DA:558,0
DA:559,0
DA:560,0
DA:562,0
DA:563,0
DA:564,0
DA:565,0
DA:566,0
DA:567,0
DA:568,0
DA:569,0
DA:570,0
DA:571,0
DA:572,0
DA:573,0
DA:574,0
DA:575,0
DA:577,0
DA:580,0
DA:581,0
DA:582,0
DA:583,0
DA:584,0
DA:585,0
DA:586,0
DA:587,0
DA:588,0
DA:589,0
DA:591,0
DA:596,0
DA:597,0
DA:598,0
DA:599,0
DA:600,0
DA:601,0
DA:602,0
DA:604,0
DA:605,0
DA:608,0
DA:609,0
DA:610,0
DA:611,0
DA:612,0
DA:613,0
DA:614,0
DA:615,0
DA:616,0
DA:617,0
DA:618,0
DA:619,0
DA:620,0
DA:621,0
DA:622,0
DA:625,0
DA:626,0
DA:629,0
DA:630,0
DA:631,0
DA:632,0
DA:633,0
DA:634,0
DA:636,0
DA:637,0
DA:640,0
DA:641,0
DA:642,0
DA:644,0
DA:646,0
DA:649,0
DA:650,0
DA:651,0
DA:652,0
DA:653,0
DA:654,0
DA:657,0
DA:658,0
DA:659,0
DA:660,0
DA:661,0
DA:662,0
DA:663,0
DA:664,0
DA:665,0
DA:666,0
DA:669,0
DA:670,0
DA:671,0
DA:672,0
DA:673,0
DA:674,0
DA:675,0
DA:676,0
DA:677,0
DA:678,0
DA:679,0
DA:682,0
DA:683,0
DA:684,0
DA:687,0
DA:688,0
DA:689,0
DA:690,0
DA:691,0
DA:692,0
DA:693,0
DA:695,0
DA:696,0
DA:699,0
DA:700,0
DA:701,0
DA:702,0
DA:703,0
DA:704,0
DA:706,0
DA:707,0
DA:708,0
DA:709,0
DA:710,0
DA:711,0
DA:712,0
DA:713,0
DA:714,0
DA:715,0
DA:716,0
DA:717,0
DA:718,0
DA:719,0
DA:720,0
DA:721,0
DA:722,0
DA:723,0
DA:724,0
DA:725,0
DA:726,0
DA:727,0
DA:728,0
DA:729,0
DA:730,0
DA:731,0
DA:732,0
DA:733,0
DA:734,0
DA:735,0
DA:736,0
DA:737,0
DA:738,0
DA:739,0
DA:740,0
DA:741,0
DA:742,0
DA:743,0
DA:744,0
DA:745,0
DA:746,0
DA:747,0
DA:748,0
DA:749,0
DA:750,0
DA:751,0
DA:752,0
DA:753,0
DA:754,0
DA:755,0
DA:756,0
DA:759,0
DA:760,0
DA:761,0
DA:764,0
DA:765,0
DA:766,0
DA:767,0
DA:768,0
DA:771,0
DA:772,0
DA:773,0
DA:774,0
DA:775,0
DA:776,0
DA:778,0
DA:779,0
DA:780,0
DA:781,0
DA:782,0
DA:784,0
DA:785,0
DA:786,0
DA:791,0
DA:792,0
DA:795,0
DA:796,0
DA:797,0
DA:800,0
DA:801,0
DA:802,0
DA:804,0
DA:807,0
DA:808,0
DA:809,0
DA:810,0
DA:811,0
DA:812,0
DA:813,0
BRF:0
BRH:0
LF:344
LH:0
end_of_record
SF:/Users/didi/Desktop/vm/vm-core/src/domain_services/target_optimization_service.rs
FN:1162,_RNCNvMs_NtNtCsbkbnPoCG8ZW_7vm_core15domain_services27target_optimization_serviceNtB6_31TargetOptimizationDomainService32estimate_performance_improvement0Ba_
FNDA:0,_RNCNvMs_NtNtCsbkbnPoCG8ZW_7vm_core15domain_services27target_optimization_serviceNtB6_31TargetOptimizationDomainService32estimate_performance_improvement0Ba_
FNF:1
FNH:0
DA:1162,0
BRF:0
BRH:0
LF:1
LH:0
end_of_record
SF:/Users/didi/Desktop/vm/vm-core/src/domain_type_safety.rs
FN:37,_RNvXNtCsbkbnPoCG8ZW_7vm_core18domain_type_safetyNtB4_9GuestAddrNtB2_12GuestAddrExt10align_down
FN:33,_RNvXNtCsbkbnPoCG8ZW_7vm_core18domain_type_safetyNtB4_9GuestAddrNtB2_12GuestAddrExt10is_aligned
FN:58,_RNvXNtCsbkbnPoCG8ZW_7vm_core18domain_type_safetyNtB4_9GuestAddrNtB2_12GuestAddrExt10page_index
FN:19,_RNvXNtCsbkbnPoCG8ZW_7vm_core18domain_type_safetyNtB4_9GuestAddrNtB2_12GuestAddrExt11checked_add
FN:26,_RNvXNtCsbkbnPoCG8ZW_7vm_core18domain_type_safetyNtB4_9GuestAddrNtB2_12GuestAddrExt11checked_sub
FN:62,_RNvXNtCsbkbnPoCG8ZW_7vm_core18domain_type_safetyNtB4_9GuestAddrNtB2_12GuestAddrExt11page_offset
FN:41,_RNvXNtCsbkbnPoCG8ZW_7vm_core18domain_type_safetyNtB4_9GuestAddrNtB2_12GuestAddrExt8align_up
FN:81,_RNvXs_NtCsbkbnPoCG8ZW_7vm_core18domain_type_safetyNtB6_13GuestPhysAddrNtB4_16GuestPhysAddrExt10align_down
FN:77,_RNvXs_NtCsbkbnPoCG8ZW_7vm_core18domain_type_safetyNtB6_13GuestPhysAddrNtB4_16GuestPhysAddrExt10is_aligned
FN:102,_RNvXs_NtCsbkbnPoCG8ZW_7vm_core18domain_type_safetyNtB6_13GuestPhysAddrNtB4_16GuestPhysAddrExt10page_index
FN:106,_RNvXs_NtCsbkbnPoCG8ZW_7vm_core18domain_type_safetyNtB6_13GuestPhysAddrNtB4_16GuestPhysAddrExt11page_offset
FN:85,_RNvXs_NtCsbkbnPoCG8ZW_7vm_core18domain_type_safetyNtB6_13GuestPhysAddrNtB4_16GuestPhysAddrExt8align_up
FNDA:0,_RNvXNtCsbkbnPoCG8ZW_7vm_core18domain_type_safetyNtB4_9GuestAddrNtB2_12GuestAddrExt10align_down
FNDA:0,_RNvXNtCsbkbnPoCG8ZW_7vm_core18domain_type_safetyNtB4_9GuestAddrNtB2_12GuestAddrExt10is_aligned
FNDA:0,_RNvXNtCsbkbnPoCG8ZW_7vm_core18domain_type_safetyNtB4_9GuestAddrNtB2_12GuestAddrExt10page_index
FNDA:0,_RNvXNtCsbkbnPoCG8ZW_7vm_core18domain_type_safetyNtB4_9GuestAddrNtB2_12GuestAddrExt11checked_add
FNDA:0,_RNvXNtCsbkbnPoCG8ZW_7vm_core18domain_type_safetyNtB4_9GuestAddrNtB2_12GuestAddrExt11checked_sub
FNDA:0,_RNvXNtCsbkbnPoCG8ZW_7vm_core18domain_type_safetyNtB4_9GuestAddrNtB2_12GuestAddrExt11page_offset
FNDA:0,_RNvXNtCsbkbnPoCG8ZW_7vm_core18domain_type_safetyNtB4_9GuestAddrNtB2_12GuestAddrExt8align_up
FNDA:0,_RNvXs_NtCsbkbnPoCG8ZW_7vm_core18domain_type_safetyNtB6_13GuestPhysAddrNtB4_16GuestPhysAddrExt10align_down
FNDA:0,_RNvXs_NtCsbkbnPoCG8ZW_7vm_core18domain_type_safetyNtB6_13GuestPhysAddrNtB4_16GuestPhysAddrExt10is_aligned
FNDA:0,_RNvXs_NtCsbkbnPoCG8ZW_7vm_core18domain_type_safetyNtB6_13GuestPhysAddrNtB4_16GuestPhysAddrExt10page_index
FNDA:0,_RNvXs_NtCsbkbnPoCG8ZW_7vm_core18domain_type_safetyNtB6_13GuestPhysAddrNtB4_16GuestPhysAddrExt11page_offset
FNDA:0,_RNvXs_NtCsbkbnPoCG8ZW_7vm_core18domain_type_safetyNtB6_13GuestPhysAddrNtB4_16GuestPhysAddrExt8align_up
FNF:12
FNH:0
DA:19,0
DA:20,0
DA:21,0
DA:22,0
DA:23,0
DA:24,0
DA:26,0
DA:27,0
DA:28,0
DA:29,0
DA:30,0
DA:31,0
DA:33,0
DA:34,0
DA:35,0
DA:37,0
DA:38,0
DA:39,0
DA:41,0
DA:42,0
DA:43,0
DA:44,0
DA:45,0
DA:46,0
DA:47,0
DA:48,0
DA:49,0
DA:50,0
DA:51,0
DA:52,0
DA:53,0
DA:54,0
DA:55,0
DA:56,0
DA:58,0
DA:59,0
DA:60,0
DA:62,0
DA:63,0
DA:64,0
DA:77,0
DA:78,0
DA:79,0
DA:81,0
DA:82,0
DA:83,0
DA:85,0
DA:86,0
DA:87,0
DA:88,0
DA:89,0
DA:90,0
DA:91,0
DA:92,0
DA:93,0
DA:94,0
DA:95,0
DA:96,0
DA:97,0
DA:98,0
DA:99,0
DA:100,0
DA:102,0
DA:103,0
DA:104,0
DA:106,0
DA:107,0
DA:108,0
BRF:0
BRH:0
LF:68
LH:0
end_of_record
SF:/Users/didi/Desktop/vm/vm-core/src/error.rs
FN:998,_RNvMsn_NtCsbkbnPoCG8ZW_7vm_core5errorNtB5_14ErrorCollector10has_errors
FN:1018,_RNvMsn_NtCsbkbnPoCG8ZW_7vm_core5errorNtB5_14ErrorCollector13into_vm_error
FN:1003,_RNvMsn_NtCsbkbnPoCG8ZW_7vm_core5errorNtB5_14ErrorCollector3len
FN:977,_RNvMsn_NtCsbkbnPoCG8ZW_7vm_core5errorNtB5_14ErrorCollector3new
FN:982,_RNvMsn_NtCsbkbnPoCG8ZW_7vm_core5errorNtB5_14ErrorCollector4push
FN:1030,_RNvMsn_NtCsbkbnPoCG8ZW_7vm_core5errorNtB5_14ErrorCollector5clear
FN:1013,_RNvMsn_NtCsbkbnPoCG8ZW_7vm_core5errorNtB5_14ErrorCollector6errors
FN:1008,_RNvMsn_NtCsbkbnPoCG8ZW_7vm_core5errorNtB5_14ErrorCollector8is_empty
FN:1057,_RNvMso_NtCsbkbnPoCG8ZW_7vm_core5errorNtB5_11ErrorLogger11log_warning
FN:1062,_RNvMso_NtCsbkbnPoCG8ZW_7vm_core5errorNtB5_11ErrorLogger9log_debug
FN:1040,_RNvMso_NtCsbkbnPoCG8ZW_7vm_core5errorNtB5_11ErrorLogger9log_error
FN:372,_RNvXNtCsbkbnPoCG8ZW_7vm_core5errorNtB2_7VmErrorNtNtCskzPJi2J8k3N_4core3fmt7Display3fmt
FN:456,_RNvXs0_NtCsbkbnPoCG8ZW_7vm_core5errorNtB5_11MemoryErrorNtNtCskzPJi2J8k3N_4core3fmt7Display3fmt
FN:504,_RNvXs1_NtCsbkbnPoCG8ZW_7vm_core5errorNtB5_14ExecutionErrorNtNtCskzPJi2J8k3N_4core3fmt7Display3fmt
FN:536,_RNvXs2_NtCsbkbnPoCG8ZW_7vm_core5errorNtB5_11DeviceErrorNtNtCskzPJi2J8k3N_4core3fmt7Display3fmt
FN:594,_RNvXs3_NtCsbkbnPoCG8ZW_7vm_core5errorNtB5_13PlatformErrorNtNtCskzPJi2J8k3N_4core3fmt7Display3fmt
FN:671,_RNvXs4_NtCsbkbnPoCG8ZW_7vm_core5errorNtB5_7VmErrorNtNtCskzPJi2J8k3N_4core5error5Error6source
FN:393,_RNvXs_NtCsbkbnPoCG8ZW_7vm_core5errorNtB4_9CoreErrorNtNtCskzPJi2J8k3N_4core3fmt7Display3fmt
FN:696,_RNvXsa_NtCsbkbnPoCG8ZW_7vm_core5errorNtB5_7VmErrorINtNtCskzPJi2J8k3N_4core7convert4FromNtB5_9CoreErrorE4from
FN:702,_RNvXsb_NtCsbkbnPoCG8ZW_7vm_core5errorNtB5_7VmErrorINtNtCskzPJi2J8k3N_4core7convert4FromNtB5_11MemoryErrorE4from
FN:708,_RNvXsc_NtCsbkbnPoCG8ZW_7vm_core5errorNtB5_7VmErrorINtNtCskzPJi2J8k3N_4core7convert4FromNtB5_14ExecutionErrorE4from
FN:714,_RNvXsd_NtCsbkbnPoCG8ZW_7vm_core5errorNtB5_7VmErrorINtNtCskzPJi2J8k3N_4core7convert4FromNtB5_11DeviceErrorE4from
FN:720,_RNvXse_NtCsbkbnPoCG8ZW_7vm_core5errorNtB5_7VmErrorINtNtCskzPJi2J8k3N_4core7convert4FromNtB5_13PlatformErrorE4from
FN:726,_RNvXsf_NtCsbkbnPoCG8ZW_7vm_core5errorNtB5_7VmErrorINtNtCskzPJi2J8k3N_4core7convert4FromNtNtNtCsiThrkg7suPy_3std2io5error5ErrorE4from
FN:732,_RNvXsg_NtCsbkbnPoCG8ZW_7vm_core5errorNtB5_7VmErrorINtNtCskzPJi2J8k3N_4core7convert4FromNtB7_5FaultE4from
FN:738,_RNvXsh_NtCsbkbnPoCG8ZW_7vm_core5errorNtB5_7VmErrorINtNtCskzPJi2J8k3N_4core7convert4FromNtNtCsganj50Cd8Gx_5alloc6string6StringE4from
FN:747,_RNvXsi_NtCsbkbnPoCG8ZW_7vm_core5errorNtB5_7VmErrorNtNtCskzPJi2J8k3N_4core3cmp9PartialEq2eq
FN:774,_RNvXsj_NtCsbkbnPoCG8ZW_7vm_core5errorNtB5_7VmErrorINtNtCskzPJi2J8k3N_4core7convert4FromReE4from
FN:889,_RNvXsm_NtCsbkbnPoCG8ZW_7vm_core5errorNtB5_7VmErrorNtB5_13ErrorRecovery12is_retryable
FN:902,_RNvXsm_NtCsbkbnPoCG8ZW_7vm_core5errorNtB5_7VmErrorNtB5_13ErrorRecovery15suggested_delay
FN:1083,_RNvXsp_NtCsbkbnPoCG8ZW_7vm_core5errorNtB5_7VmErrorNtB5_11IntoVmError13into_vm_error
FN:1105,_RNvXsr_NtCsbkbnPoCG8ZW_7vm_core5errorReNtB5_11IntoVmError13into_vm_error
FNDA:0,_RNvMsn_NtCsbkbnPoCG8ZW_7vm_core5errorNtB5_14ErrorCollector10has_errors
FNDA:0,_RNvMsn_NtCsbkbnPoCG8ZW_7vm_core5errorNtB5_14ErrorCollector13into_vm_error
FNDA:0,_RNvMsn_NtCsbkbnPoCG8ZW_7vm_core5errorNtB5_14ErrorCollector3len
FNDA:0,_RNvMsn_NtCsbkbnPoCG8ZW_7vm_core5errorNtB5_14ErrorCollector3new
FNDA:0,_RNvMsn_NtCsbkbnPoCG8ZW_7vm_core5errorNtB5_14ErrorCollector4push
FNDA:0,_RNvMsn_NtCsbkbnPoCG8ZW_7vm_core5errorNtB5_14ErrorCollector5clear
FNDA:0,_RNvMsn_NtCsbkbnPoCG8ZW_7vm_core5errorNtB5_14ErrorCollector6errors
FNDA:0,_RNvMsn_NtCsbkbnPoCG8ZW_7vm_core5errorNtB5_14ErrorCollector8is_empty
FNDA:0,_RNvMso_NtCsbkbnPoCG8ZW_7vm_core5errorNtB5_11ErrorLogger11log_warning
FNDA:0,_RNvMso_NtCsbkbnPoCG8ZW_7vm_core5errorNtB5_11ErrorLogger9log_debug
FNDA:0,_RNvMso_NtCsbkbnPoCG8ZW_7vm_core5errorNtB5_11ErrorLogger9log_error
FNDA:0,_RNvXNtCsbkbnPoCG8ZW_7vm_core5errorNtB2_7VmErrorNtNtCskzPJi2J8k3N_4core3fmt7Display3fmt
FNDA:0,_RNvXs0_NtCsbkbnPoCG8ZW_7vm_core5errorNtB5_11MemoryErrorNtNtCskzPJi2J8k3N_4core3fmt7Display3fmt
FNDA:0,_RNvXs1_NtCsbkbnPoCG8ZW_7vm_core5errorNtB5_14ExecutionErrorNtNtCskzPJi2J8k3N_4core3fmt7Display3fmt
FNDA:0,_RNvXs2_NtCsbkbnPoCG8ZW_7vm_core5errorNtB5_11DeviceErrorNtNtCskzPJi2J8k3N_4core3fmt7Display3fmt
FNDA:0,_RNvXs3_NtCsbkbnPoCG8ZW_7vm_core5errorNtB5_13PlatformErrorNtNtCskzPJi2J8k3N_4core3fmt7Display3fmt
FNDA:0,_RNvXs4_NtCsbkbnPoCG8ZW_7vm_core5errorNtB5_7VmErrorNtNtCskzPJi2J8k3N_4core5error5Error6source
FNDA:0,_RNvXs_NtCsbkbnPoCG8ZW_7vm_core5errorNtB4_9CoreErrorNtNtCskzPJi2J8k3N_4core3fmt7Display3fmt
FNDA:0,_RNvXsa_NtCsbkbnPoCG8ZW_7vm_core5errorNtB5_7VmErrorINtNtCskzPJi2J8k3N_4core7convert4FromNtB5_9CoreErrorE4from
FNDA:0,_RNvXsb_NtCsbkbnPoCG8ZW_7vm_core5errorNtB5_7VmErrorINtNtCskzPJi2J8k3N_4core7convert4FromNtB5_11MemoryErrorE4from
FNDA:0,_RNvXsc_NtCsbkbnPoCG8ZW_7vm_core5errorNtB5_7VmErrorINtNtCskzPJi2J8k3N_4core7convert4FromNtB5_14ExecutionErrorE4from
FNDA:0,_RNvXsd_NtCsbkbnPoCG8ZW_7vm_core5errorNtB5_7VmErrorINtNtCskzPJi2J8k3N_4core7convert4FromNtB5_11DeviceErrorE4from
FNDA:0,_RNvXse_NtCsbkbnPoCG8ZW_7vm_core5errorNtB5_7VmErrorINtNtCskzPJi2J8k3N_4core7convert4FromNtB5_13PlatformErrorE4from
FNDA:0,_RNvXsf_NtCsbkbnPoCG8ZW_7vm_core5errorNtB5_7VmErrorINtNtCskzPJi2J8k3N_4core7convert4FromNtNtNtCsiThrkg7suPy_3std2io5error5ErrorE4from
FNDA:0,_RNvXsg_NtCsbkbnPoCG8ZW_7vm_core5errorNtB5_7VmErrorINtNtCskzPJi2J8k3N_4core7convert4FromNtB7_5FaultE4from
FNDA:0,_RNvXsh_NtCsbkbnPoCG8ZW_7vm_core5errorNtB5_7VmErrorINtNtCskzPJi2J8k3N_4core7convert4FromNtNtCsganj50Cd8Gx_5alloc6string6StringE4from
FNDA:0,_RNvXsi_NtCsbkbnPoCG8ZW_7vm_core5errorNtB5_7VmErrorNtNtCskzPJi2J8k3N_4core3cmp9PartialEq2eq
FNDA:0,_RNvXsj_NtCsbkbnPoCG8ZW_7vm_core5errorNtB5_7VmErrorINtNtCskzPJi2J8k3N_4core7convert4FromReE4from
FNDA:0,_RNvXsm_NtCsbkbnPoCG8ZW_7vm_core5errorNtB5_7VmErrorNtB5_13ErrorRecovery12is_retryable
FNDA:0,_RNvXsm_NtCsbkbnPoCG8ZW_7vm_core5errorNtB5_7VmErrorNtB5_13ErrorRecovery15suggested_delay
FNDA:0,_RNvXsp_NtCsbkbnPoCG8ZW_7vm_core5errorNtB5_7VmErrorNtB5_11IntoVmError13into_vm_error
FNDA:0,_RNvXsr_NtCsbkbnPoCG8ZW_7vm_core5errorReNtB5_11IntoVmError13into_vm_error
FNF:32
FNH:0
DA:372,0
DA:373,0
DA:374,0
DA:375,0
DA:376,0
DA:377,0
DA:378,0
DA:379,0
DA:380,0
DA:381,0
DA:382,0
DA:383,0
DA:384,0
DA:386,0
DA:389,0
DA:393,0
DA:394,0
DA:395,0
DA:396,0
DA:397,0
DA:399,0
DA:400,0
DA:403,0
DA:404,0
DA:405,0
DA:407,0
DA:408,0
DA:409,0
DA:413,0
DA:414,0
DA:417,0
DA:418,0
DA:419,0
DA:420,0
DA:421,0
DA:422,0
DA:424,0
DA:425,0
DA:427,0
DA:428,0
DA:431,0
DA:432,0
DA:433,0
DA:435,0
DA:436,0
DA:437,0
DA:441,0
DA:442,0
DA:445,0
DA:446,0
DA:447,0
DA:449,0
DA:452,0
DA:456,0
DA:457,0
DA:459,0
DA:460,0
DA:461,0
DA:462,0
DA:463,0
DA:464,0
DA:466,0
DA:467,0
DA:468,0
DA:469,0
DA:470,0
DA:472,0
DA:473,0
DA:474,0
DA:476,0
DA:477,0
DA:479,0
DA:481,0
DA:482,0
DA:483,0
DA:485,0
DA:486,0
DA:487,0
DA:491,0
DA:492,0
DA:493,0
DA:495,0
DA:496,0
DA:497,0
DA:500,0
DA:504,0
DA:505,0
DA:506,0
DA:507,0
DA:508,0
DA:510,0
DA:511,0
DA:512,0
DA:515,0
DA:516,0
DA:518,0
DA:519,0
DA:520,0
DA:525,0
DA:526,0
DA:527,0
DA:528,0
DA:529,0
DA:532,0
DA:536,0
DA:537,0
DA:539,0
DA:540,0
DA:542,0
DA:545,0
DA:546,0
DA:548,0
DA:549,0
DA:550,0
DA:555,0
DA:556,0
DA:557,0
DA:559,0
DA:560,0
DA:561,0
DA:566,0
DA:567,0
DA:568,0
DA:570,0
DA:571,0
DA:572,0
DA:576,0
DA:577,0
DA:580,0
DA:581,0
DA:583,0
DA:584,0
DA:585,0
DA:590,0
DA:594,0
DA:595,0
DA:596,0
DA:597,0
DA:599,0
DA:600,0
DA:601,0
DA:603,0
DA:604,0
DA:605,0
DA:606,0
DA:608,0
DA:612,0
DA:613,0
DA:615,0
DA:616,0
DA:617,0
DA:621,0
DA:622,0
DA:623,0
DA:625,0
DA:626,0
DA:627,0
DA:629,0
DA:630,0
DA:631,0
DA:633,0
DA:634,0
DA:635,0
DA:637,0
DA:638,0
DA:639,0
DA:643,0
DA:644,0
DA:645,0
DA:646,0
DA:647,0
DA:649,0
DA:650,0
DA:652,0
DA:653,0
DA:656,0
DA:657,0
DA:658,0
DA:660,0
DA:661,0
DA:662,0
DA:667,0
DA:671,0
DA:672,0
DA:673,0
DA:674,0
DA:675,0
DA:676,0
DA:677,0
DA:678,0
DA:679,0
DA:680,0
DA:682,0
DA:696,0
DA:697,0
DA:698,0
DA:702,0
DA:703,0
DA:704,0
DA:708,0
DA:709,0
DA:710,0
DA:714,0
DA:715,0
DA:716,0
DA:720,0
DA:721,0
DA:722,0
DA:726,0
DA:727,0
DA:728,0
DA:732,0
DA:733,0
DA:734,0
DA:738,0
DA:739,0
DA:740,0
DA:741,0
DA:742,0
DA:743,0
DA:747,0
DA:748,0
DA:749,0
DA:750,0
DA:751,0
DA:752,0
DA:753,0
DA:754,0
DA:757,0
DA:758,0
DA:762,0
DA:763,0
DA:766,0
DA:767,0
DA:768,0
DA:770,0
DA:774,0
DA:775,0
DA:776,0
DA:777,0
DA:778,0
DA:779,0
DA:889,0
DA:890,0
DA:891,0
DA:892,0
DA:893,0
DA:894,0
DA:895,0
DA:897,0
DA:898,0
DA:900,0
DA:902,0
DA:903,0
DA:904,0
DA:905,0
DA:906,0
DA:907,0
DA:909,0
DA:977,0
DA:978,0
DA:979,0
DA:982,0
DA:983,0
DA:984,0
DA:998,0
DA:999,0
DA:1000,0
DA:1003,0
DA:1004,0
DA:1005,0
DA:1008,0
DA:1009,0
DA:1010,0
DA:1013,0
DA:1014,0
DA:1015,0
DA:1018,0
DA:1019,0
DA:1020,0
DA:1021,0
DA:1023,0
DA:1025,0
DA:1027,0
DA:1030,0
DA:1031,0
DA:1032,0
DA:1040,0
DA:1041,0
DA:1044,0
DA:1045,0
DA:1046,0
DA:1047,0
DA:1048,0
DA:1049,0
DA:1050,0
DA:1051,0
DA:1052,0
DA:1054,0
DA:1057,0
DA:1058,0
DA:1059,0
DA:1062,0
DA:1063,0
DA:1064,0
DA:1083,0
DA:1084,0
DA:1085,0
DA:1105,0
DA:1106,0
DA:1107,0
BRF:0
BRH:0
LF:311
LH:0
end_of_record
SF:/Users/didi/Desktop/vm/vm-core/src/foundation/support_utils.rs
FN:216,_RNCNvNtNtNtCsbkbnPoCG8ZW_7vm_core10foundation13support_utils7str_ops13to_camel_case0B9_
FN:202,_RNCNvNtNtNtCsbkbnPoCG8ZW_7vm_core10foundation13support_utils7str_ops13to_snake_case0B9_
FNDA:0,_RNCNvNtNtNtCsbkbnPoCG8ZW_7vm_core10foundation13support_utils7str_ops13to_camel_case0B9_
FNDA:0,_RNCNvNtNtNtCsbkbnPoCG8ZW_7vm_core10foundation13support_utils7str_ops13to_snake_case0B9_
FNF:2
FNH:0
DA:202,0
DA:203,0
DA:204,0
DA:206,0
DA:208,0
DA:216,0
DA:217,0
DA:218,0
DA:220,0
DA:221,0
DA:222,0
DA:223,0
DA:225,0
DA:228,0
BRF:0
BRH:0
LF:14
LH:0
end_of_record
SF:/Users/didi/Desktop/vm/vm-core/src/foundation/validation.rs
FN:50,_RNvMNtNtCsbkbnPoCG8ZW_7vm_core10foundation10validationNtB2_16ValidationResult11add_warning
FN:40,_RNvMNtNtCsbkbnPoCG8ZW_7vm_core10foundation10validationNtB2_16ValidationResult13with_warnings
FN:24,_RNvMNtNtCsbkbnPoCG8ZW_7vm_core10foundation10validationNtB2_16ValidationResult5valid
FN:32,_RNvMNtNtCsbkbnPoCG8ZW_7vm_core10foundation10validationNtB2_16ValidationResult7invalid
FN:45,_RNvMNtNtCsbkbnPoCG8ZW_7vm_core10foundation10validationNtB2_16ValidationResult9add_error
FN:54,_RNvMNtNtCsbkbnPoCG8ZW_7vm_core10foundation10validationNtB2_16ValidationResult9to_result
FN:605,_RNvMs3_NtNtCsbkbnPoCG8ZW_7vm_core10foundation10validationNtB5_18CompositeValidator13add_validator
FN:138,_RNvMs_NtNtCsbkbnPoCG8ZW_7vm_core10foundation10validationNtB4_15ValidationError6format
FN:144,_RNvXs0_NtNtCsbkbnPoCG8ZW_7vm_core10foundation10validationNtB5_15ValidationErrorNtNtCskzPJi2J8k3N_4core3fmt7Display3fmt
FN:204,_RNvXs2_NtNtCsbkbnPoCG8ZW_7vm_core10foundation10validationNtB5_17ValidationWarningNtNtCskzPJi2J8k3N_4core3fmt7Display3fmt
FN:616,_RNvXs4_NtNtCsbkbnPoCG8ZW_7vm_core10foundation10validationNtB5_18CompositeValidatorINtB5_9ValidatorNtNtCsganj50Cd8Gx_5alloc6string6StringE20validate_with_result
FN:612,_RNvXs4_NtNtCsbkbnPoCG8ZW_7vm_core10foundation10validationNtB5_18CompositeValidatorINtB5_9ValidatorNtNtCsganj50Cd8Gx_5alloc6string6StringE8validate
FN:62,_RNCNvMNtNtCsbkbnPoCG8ZW_7vm_core10foundation10validationNtB4_16ValidationResult9to_result0B8_
FNDA:0,_RNvMNtNtCsbkbnPoCG8ZW_7vm_core10foundation10validationNtB2_16ValidationResult11add_warning
FNDA:0,_RNvMNtNtCsbkbnPoCG8ZW_7vm_core10foundation10validationNtB2_16ValidationResult13with_warnings
FNDA:0,_RNvMNtNtCsbkbnPoCG8ZW_7vm_core10foundation10validationNtB2_16ValidationResult5valid
FNDA:0,_RNvMNtNtCsbkbnPoCG8ZW_7vm_core10foundation10validationNtB2_16ValidationResult7invalid
FNDA:0,_RNvMNtNtCsbkbnPoCG8ZW_7vm_core10foundation10validationNtB2_16ValidationResult9add_error
FNDA:0,_RNvMNtNtCsbkbnPoCG8ZW_7vm_core10foundation10validationNtB2_16ValidationResult9to_result
FNDA:0,_RNvMs3_NtNtCsbkbnPoCG8ZW_7vm_core10foundation10validationNtB5_18CompositeValidator13add_validator
FNDA:0,_RNvMs_NtNtCsbkbnPoCG8ZW_7vm_core10foundation10validationNtB4_15ValidationError6format
FNDA:0,_RNvXs0_NtNtCsbkbnPoCG8ZW_7vm_core10foundation10validationNtB5_15ValidationErrorNtNtCskzPJi2J8k3N_4core3fmt7Display3fmt
FNDA:0,_RNvXs2_NtNtCsbkbnPoCG8ZW_7vm_core10foundation10validationNtB5_17ValidationWarningNtNtCskzPJi2J8k3N_4core3fmt7Display3fmt
FNDA:0,_RNvXs4_NtNtCsbkbnPoCG8ZW_7vm_core10foundation10validationNtB5_18CompositeValidatorINtB5_9ValidatorNtNtCsganj50Cd8Gx_5alloc6string6StringE20validate_with_result
FNDA:0,_RNvXs4_NtNtCsbkbnPoCG8ZW_7vm_core10foundation10validationNtB5_18CompositeValidatorINtB5_9ValidatorNtNtCsganj50Cd8Gx_5alloc6string6StringE8validate
FNDA:0,_RNCNvMNtNtCsbkbnPoCG8ZW_7vm_core10foundation10validationNtB4_16ValidationResult9to_result0B8_
FNF:13
FNH:0
DA:24,0
DA:25,0
DA:26,0
DA:27,0
DA:28,0
DA:29,0
DA:30,0
DA:32,0
DA:33,0
DA:34,0
DA:35,0
DA:36,0
DA:37,0
DA:38,0
DA:40,0
DA:41,0
DA:42,0
DA:43,0
DA:45,0
DA:46,0
DA:47,0
DA:48,0
DA:50,0
DA:51,0
DA:52,0
DA:54,0
DA:55,0
DA:56,0
DA:60,0
DA:61,0
DA:62,0
DA:63,0
DA:64,0
DA:66,0
DA:69,0
DA:138,0
DA:139,0
DA:140,0
DA:144,0
DA:145,0
DA:146,0
DA:204,0
DA:205,0
DA:206,0
DA:605,0
DA:606,0
DA:607,0
DA:608,0
DA:612,0
DA:613,0
DA:614,0
DA:616,0
DA:617,0
DA:619,0
DA:620,0
DA:621,0
DA:622,0
DA:623,0
DA:624,0
DA:627,0
DA:628,0
DA:629,0
DA:631,0
DA:632,0
BRF:0
BRH:0
LF:65
LH:0
end_of_record
SF:/Users/didi/Desktop/vm/vm-core/src/gc/concurrent.rs
FN:179,_RNCNvMs0_NtNtCsbkbnPoCG8ZW_7vm_core2gc10concurrentNtB7_12ConcurrentGC3new0Bb_
FN:366,_RNCNCNvMs0_NtNtCsbkbnPoCG8ZW_7vm_core2gc10concurrentNtB9_12ConcurrentGC30collect_references_from_object00Bd_
FN:348,_RNCNvMs0_NtNtCsbkbnPoCG8ZW_7vm_core2gc10concurrentNtB7_12ConcurrentGC30collect_references_from_object0Bb_
FN:89,_RNCNvXs_NtNtCsbkbnPoCG8ZW_7vm_core2gc10concurrentNtB6_18ConcurrentGCConfigNtNtCskzPJi2J8k3N_4core7default7Default7default0Ba_
FN:616,_RNvMs0_NtNtCsbkbnPoCG8ZW_7vm_core2gc10concurrentNtB5_12ConcurrentGC12avg_pause_ms
FN:623,_RNvMs0_NtNtCsbkbnPoCG8ZW_7vm_core2gc10concurrentNtB5_12ConcurrentGC12max_pause_ms
FN:387,_RNvMs0_NtNtCsbkbnPoCG8ZW_7vm_core2gc10concurrentNtB5_12ConcurrentGC16get_object_color
FN:400,_RNvMs0_NtNtCsbkbnPoCG8ZW_7vm_core2gc10concurrentNtB5_12ConcurrentGC16set_object_color
FN:447,_RNvMs0_NtNtCsbkbnPoCG8ZW_7vm_core2gc10concurrentNtB5_12ConcurrentGC16wait_for_marking
FN:611,_RNvMs0_NtNtCsbkbnPoCG8ZW_7vm_core2gc10concurrentNtB5_12ConcurrentGC17get_barrier_stats
FN:478,_RNvMs0_NtNtCsbkbnPoCG8ZW_7vm_core2gc10concurrentNtB5_12ConcurrentGC18collect_concurrent
FN:208,_RNvMs0_NtNtCsbkbnPoCG8ZW_7vm_core2gc10concurrentNtB5_12ConcurrentGC18marker_worker_loop
FN:548,_RNvMs0_NtNtCsbkbnPoCG8ZW_7vm_core2gc10concurrentNtB5_12ConcurrentGC18write_barrier_satb
FN:577,_RNvMs0_NtNtCsbkbnPoCG8ZW_7vm_core2gc10concurrentNtB5_12ConcurrentGC19write_barrier_yuasa
FN:606,_RNvMs0_NtNtCsbkbnPoCG8ZW_7vm_core2gc10concurrentNtB5_12ConcurrentGC20get_concurrent_stats
FN:410,_RNvMs0_NtNtCsbkbnPoCG8ZW_7vm_core2gc10concurrentNtB5_12ConcurrentGC21start_concurrent_mark
FN:264,_RNvMs0_NtNtCsbkbnPoCG8ZW_7vm_core2gc10concurrentNtB5_12ConcurrentGC25scan_object_and_mark_refs
FN:337,_RNvMs0_NtNtCsbkbnPoCG8ZW_7vm_core2gc10concurrentNtB5_12ConcurrentGC30collect_references_from_object
FN:160,_RNvMs0_NtNtCsbkbnPoCG8ZW_7vm_core2gc10concurrentNtB5_12ConcurrentGC3new
FN:668,_RNvXs1_NtNtCsbkbnPoCG8ZW_7vm_core2gc10concurrentNtB5_12ConcurrentGCNtB7_10GCStrategy11reset_stats
FN:664,_RNvXs1_NtNtCsbkbnPoCG8ZW_7vm_core2gc10concurrentNtB5_12ConcurrentGCNtB7_10GCStrategy12get_gc_stats
FN:641,_RNvXs1_NtNtCsbkbnPoCG8ZW_7vm_core2gc10concurrentNtB5_12ConcurrentGCNtB7_10GCStrategy13write_barrier
FN:660,_RNvXs1_NtNtCsbkbnPoCG8ZW_7vm_core2gc10concurrentNtB5_12ConcurrentGCNtB7_10GCStrategy14get_heap_stats
FN:636,_RNvXs1_NtNtCsbkbnPoCG8ZW_7vm_core2gc10concurrentNtB5_12ConcurrentGCNtB7_10GCStrategy7collect
FN:631,_RNvXs1_NtNtCsbkbnPoCG8ZW_7vm_core2gc10concurrentNtB5_12ConcurrentGCNtB7_10GCStrategy8allocate
FN:86,_RNvXs_NtNtCsbkbnPoCG8ZW_7vm_core2gc10concurrentNtB4_18ConcurrentGCConfigNtNtCskzPJi2J8k3N_4core7default7Default7default
FNDA:0,_RNCNvMs0_NtNtCsbkbnPoCG8ZW_7vm_core2gc10concurrentNtB7_12ConcurrentGC3new0Bb_
FNDA:0,_RNCNCNvMs0_NtNtCsbkbnPoCG8ZW_7vm_core2gc10concurrentNtB9_12ConcurrentGC30collect_references_from_object00Bd_
FNDA:0,_RNCNvMs0_NtNtCsbkbnPoCG8ZW_7vm_core2gc10concurrentNtB7_12ConcurrentGC30collect_references_from_object0Bb_
FNDA:0,_RNCNvXs_NtNtCsbkbnPoCG8ZW_7vm_core2gc10concurrentNtB6_18ConcurrentGCConfigNtNtCskzPJi2J8k3N_4core7default7Default7default0Ba_
FNDA:0,_RNvMs0_NtNtCsbkbnPoCG8ZW_7vm_core2gc10concurrentNtB5_12ConcurrentGC12avg_pause_ms
FNDA:0,_RNvMs0_NtNtCsbkbnPoCG8ZW_7vm_core2gc10concurrentNtB5_12ConcurrentGC12max_pause_ms
FNDA:0,_RNvMs0_NtNtCsbkbnPoCG8ZW_7vm_core2gc10concurrentNtB5_12ConcurrentGC16get_object_color
FNDA:0,_RNvMs0_NtNtCsbkbnPoCG8ZW_7vm_core2gc10concurrentNtB5_12ConcurrentGC16set_object_color
FNDA:0,_RNvMs0_NtNtCsbkbnPoCG8ZW_7vm_core2gc10concurrentNtB5_12ConcurrentGC16wait_for_marking
FNDA:0,_RNvMs0_NtNtCsbkbnPoCG8ZW_7vm_core2gc10concurrentNtB5_12ConcurrentGC17get_barrier_stats
FNDA:0,_RNvMs0_NtNtCsbkbnPoCG8ZW_7vm_core2gc10concurrentNtB5_12ConcurrentGC18collect_concurrent
FNDA:0,_RNvMs0_NtNtCsbkbnPoCG8ZW_7vm_core2gc10concurrentNtB5_12ConcurrentGC18marker_worker_loop
FNDA:0,_RNvMs0_NtNtCsbkbnPoCG8ZW_7vm_core2gc10concurrentNtB5_12ConcurrentGC18write_barrier_satb
FNDA:0,_RNvMs0_NtNtCsbkbnPoCG8ZW_7vm_core2gc10concurrentNtB5_12ConcurrentGC19write_barrier_yuasa
FNDA:0,_RNvMs0_NtNtCsbkbnPoCG8ZW_7vm_core2gc10concurrentNtB5_12ConcurrentGC20get_concurrent_stats
FNDA:0,_RNvMs0_NtNtCsbkbnPoCG8ZW_7vm_core2gc10concurrentNtB5_12ConcurrentGC21start_concurrent_mark
FNDA:0,_RNvMs0_NtNtCsbkbnPoCG8ZW_7vm_core2gc10concurrentNtB5_12ConcurrentGC25scan_object_and_mark_refs
FNDA:0,_RNvMs0_NtNtCsbkbnPoCG8ZW_7vm_core2gc10concurrentNtB5_12ConcurrentGC30collect_references_from_object
FNDA:0,_RNvMs0_NtNtCsbkbnPoCG8ZW_7vm_core2gc10concurrentNtB5_12ConcurrentGC3new
FNDA:0,_RNvXs1_NtNtCsbkbnPoCG8ZW_7vm_core2gc10concurrentNtB5_12ConcurrentGCNtB7_10GCStrategy11reset_stats
FNDA:0,_RNvXs1_NtNtCsbkbnPoCG8ZW_7vm_core2gc10concurrentNtB5_12ConcurrentGCNtB7_10GCStrategy12get_gc_stats
FNDA:0,_RNvXs1_NtNtCsbkbnPoCG8ZW_7vm_core2gc10concurrentNtB5_12ConcurrentGCNtB7_10GCStrategy13write_barrier
FNDA:0,_RNvXs1_NtNtCsbkbnPoCG8ZW_7vm_core2gc10concurrentNtB5_12ConcurrentGCNtB7_10GCStrategy14get_heap_stats
FNDA:0,_RNvXs1_NtNtCsbkbnPoCG8ZW_7vm_core2gc10concurrentNtB5_12ConcurrentGCNtB7_10GCStrategy7collect
FNDA:0,_RNvXs1_NtNtCsbkbnPoCG8ZW_7vm_core2gc10concurrentNtB5_12ConcurrentGCNtB7_10GCStrategy8allocate
FNDA:0,_RNvXs_NtNtCsbkbnPoCG8ZW_7vm_core2gc10concurrentNtB4_18ConcurrentGCConfigNtNtCskzPJi2J8k3N_4core7default7Default7default
FNF:26
FNH:0
DA:86,0
DA:88,0
DA:89,0
DA:90,0
DA:92,0
DA:94,0
DA:97,0
DA:160,0
DA:161,0
DA:162,0
DA:163,0
DA:164,0
DA:165,0
DA:166,0
DA:167,0
DA:168,0
DA:171,0
DA:172,0
DA:173,0
DA:174,0
DA:175,0
DA:176,0
DA:177,0
DA:179,0
DA:180,0
DA:181,0
DA:182,0
DA:183,0
DA:184,0
DA:185,0
DA:186,0
DA:188,0
DA:190,0
DA:193,0
DA:194,0
DA:195,0
DA:196,0
DA:197,0
DA:198,0
DA:199,0
DA:200,0
DA:201,0
DA:202,0
DA:203,0
DA:204,0
DA:205,0
DA:208,0
DA:209,0
DA:210,0
DA:211,0
DA:212,0
DA:213,0
DA:214,0
DA:215,0
DA:216,0
DA:218,0
DA:220,0
DA:221,0
DA:222,0
DA:225,0
DA:226,0
DA:227,0
DA:228,0
DA:229,0
DA:230,0
DA:231,0
DA:232,0
DA:233,0
DA:234,0
DA:235,0
DA:236,0
DA:237,0
DA:239,0
DA:240,0
DA:242,0
DA:243,0
DA:244,0
DA:247,0
DA:248,0
DA:249,0
DA:250,0
DA:251,0
DA:252,0
DA:255,0
DA:264,0
DA:265,0
DA:266,0
DA:267,0
DA:268,0
DA:269,0
DA:271,0
DA:272,0
DA:273,0
DA:275,0
DA:279,0
DA:280,0
DA:281,0
DA:284,0
DA:285,0
DA:286,0
DA:290,0
DA:291,0
DA:292,0
DA:295,0
DA:296,0
DA:297,0
DA:298,0
DA:303,0
DA:307,0
DA:308,0
DA:310,0
DA:311,0
DA:312,0
DA:313,0
DA:314,0
DA:317,0
DA:320,0
DA:321,0
DA:322,0
DA:323,0
DA:328,0
DA:329,0
DA:337,0
DA:338,0
DA:341,0
DA:342,0
DA:343,0
DA:348,0
DA:350,0
DA:351,0
DA:355,0
DA:356,0
DA:357,0
DA:360,0
DA:361,0
DA:362,0
DA:365,0
DA:366,0
DA:367,0
DA:368,0
DA:369,0
DA:370,0
DA:375,0
DA:376,0
DA:377,0
DA:380,0
DA:381,0
DA:383,0
DA:384,0
DA:387,0
DA:388,0
DA:389,0
DA:390,0
DA:392,0
DA:393,0
DA:394,0
DA:395,0
DA:396,0
DA:397,0
DA:400,0
DA:401,0
DA:402,0
DA:403,0
DA:405,0
DA:406,0
DA:407,0
DA:410,0
DA:412,0
DA:413,0
DA:416,0
DA:424,0
DA:425,0
DA:426,0
DA:427,0
DA:428,0
DA:431,0
DA:432,0
DA:433,0
DA:434,0
DA:437,0
DA:438,0
DA:439,0
DA:440,0
DA:441,0
DA:443,0
DA:444,0
DA:447,0
DA:449,0
DA:451,0
DA:453,0
DA:454,0
DA:455,0
DA:458,0
DA:459,0
DA:460,0
DA:462,0
DA:463,0
DA:464,0
DA:465,0
DA:469,0
DA:472,0
DA:474,0
DA:475,0
DA:478,0
DA:479,0
DA:482,0
DA:483,0
DA:486,0
DA:489,0
DA:492,0
DA:495,0
DA:496,0
DA:499,0
DA:500,0
DA:503,0
DA:504,0
DA:508,0
DA:513,0
DA:516,0
DA:517,0
DA:518,0
DA:520,0
DA:521,0
DA:522,0
DA:523,0
DA:526,0
DA:527,0
DA:529,0
DA:534,0
DA:535,0
DA:536,0
DA:537,0
DA:538,0
DA:539,0
DA:540,0
DA:541,0
DA:548,0
DA:549,0
DA:550,0
DA:551,0
DA:552,0
DA:555,0
DA:558,0
DA:559,0
DA:560,0
DA:561,0
DA:562,0
DA:563,0
DA:564,0
DA:565,0
DA:566,0
DA:567,0
DA:568,0
DA:569,0
DA:570,0
DA:577,0
DA:578,0
DA:579,0
DA:580,0
DA:581,0
DA:582,0
DA:583,0
DA:586,0
DA:587,0
DA:590,0
DA:591,0
DA:592,0
DA:593,0
DA:594,0
DA:595,0
DA:596,0
DA:597,0
DA:598,0
DA:599,0
DA:600,0
DA:601,0
DA:602,0
DA:603,0
DA:606,0
DA:607,0
DA:608,0
DA:611,0
DA:612,0
DA:613,0
DA:616,0
DA:618,0
DA:619,0
DA:620,0
DA:623,0
DA:624,0
DA:625,0
DA:626,0
DA:631,0
DA:633,0
DA:634,0
DA:636,0
DA:638,0
DA:639,0
DA:641,0
DA:642,0
DA:643,0
DA:644,0
DA:645,0
DA:646,0
DA:647,0
DA:648,0
DA:649,0
DA:650,0
DA:651,0
DA:652,0
DA:653,0
DA:654,0
DA:655,0
DA:656,0
DA:658,0
DA:660,0
DA:661,0
DA:662,0
DA:664,0
DA:665,0
DA:666,0
DA:668,0
DA:669,0
DA:670,0
BRF:0
BRH:0
LF:328
LH:0
end_of_record
SF:/Users/didi/Desktop/vm/vm-core/src/gc/generational.rs
FN:521,_RNCNvXs0_NtNtCsbkbnPoCG8ZW_7vm_core2gc12generationalNtB7_14GenerationalGCNtB9_10GCStrategy13write_barrier0Bb_
FN:540,_RNCNvXs0_NtNtCsbkbnPoCG8ZW_7vm_core2gc12generationalNtB7_14GenerationalGCNtB9_10GCStrategy13write_barriers0_0Bb_
FN:44,_RNvMNtNtCsbkbnPoCG8ZW_7vm_core2gc12generationalNtB2_9CardTable10card_index
FN:53,_RNvMNtNtCsbkbnPoCG8ZW_7vm_core2gc12generationalNtB2_9CardTable10mark_dirty
FN:79,_RNvMNtNtCsbkbnPoCG8ZW_7vm_core2gc12generationalNtB2_9CardTable12dirty_ranges
FN:33,_RNvMNtNtCsbkbnPoCG8ZW_7vm_core2gc12generationalNtB2_9CardTable3new
FN:72,_RNvMNtNtCsbkbnPoCG8ZW_7vm_core2gc12generationalNtB2_9CardTable9clear_all
FN:192,_RNvMs_NtNtCsbkbnPoCG8ZW_7vm_core2gc12generationalNtB4_14GenerationalGC17allocate_in_young
FN:234,_RNvMs_NtNtCsbkbnPoCG8ZW_7vm_core2gc12generationalNtB4_14GenerationalGC24allocate_in_young_direct
FN:160,_RNvMs_NtNtCsbkbnPoCG8ZW_7vm_core2gc12generationalNtB4_14GenerationalGC3new
FN:418,_RNvMs_NtNtCsbkbnPoCG8ZW_7vm_core2gc12generationalNtB4_14GenerationalGC8major_gc
FN:276,_RNvMs_NtNtCsbkbnPoCG8ZW_7vm_core2gc12generationalNtB4_14GenerationalGC8minor_gc
FN:578,_RNvXs0_NtNtCsbkbnPoCG8ZW_7vm_core2gc12generationalNtB5_14GenerationalGCNtB7_10GCStrategy11reset_stats
FN:574,_RNvXs0_NtNtCsbkbnPoCG8ZW_7vm_core2gc12generationalNtB5_14GenerationalGCNtB7_10GCStrategy12get_gc_stats
FN:498,_RNvXs0_NtNtCsbkbnPoCG8ZW_7vm_core2gc12generationalNtB5_14GenerationalGCNtB7_10GCStrategy13write_barrier
FN:549,_RNvXs0_NtNtCsbkbnPoCG8ZW_7vm_core2gc12generationalNtB5_14GenerationalGCNtB7_10GCStrategy14get_heap_stats
FN:477,_RNvXs0_NtNtCsbkbnPoCG8ZW_7vm_core2gc12generationalNtB5_14GenerationalGCNtB7_10GCStrategy7collect
FN:473,_RNvXs0_NtNtCsbkbnPoCG8ZW_7vm_core2gc12generationalNtB5_14GenerationalGCNtB7_10GCStrategy8allocate
FN:527,_RNCNvXs0_NtNtCsbkbnPoCG8ZW_7vm_core2gc12generationalNtB7_14GenerationalGCNtB9_10GCStrategy13write_barriers_0Bb_
FN:202,_RNCNvMs_NtNtCsbkbnPoCG8ZW_7vm_core2gc12generationalNtB6_14GenerationalGC17allocate_in_young0Ba_
FN:220,_RNCNvMs_NtNtCsbkbnPoCG8ZW_7vm_core2gc12generationalNtB6_14GenerationalGC17allocate_in_youngs_0Ba_
FN:556,_RNCNvXs0_NtNtCsbkbnPoCG8ZW_7vm_core2gc12generationalNtB7_14GenerationalGCNtB9_10GCStrategy14get_heap_stats0Bb_
FN:561,_RNCNvXs0_NtNtCsbkbnPoCG8ZW_7vm_core2gc12generationalNtB7_14GenerationalGCNtB9_10GCStrategy14get_heap_statss_0Bb_
FN:441,_RNCNvMs_NtNtCsbkbnPoCG8ZW_7vm_core2gc12generationalNtB6_14GenerationalGC8major_gc0Ba_
FN:446,_RNCNvMs_NtNtCsbkbnPoCG8ZW_7vm_core2gc12generationalNtB6_14GenerationalGC8major_gcs_0Ba_
FNDA:0,_RNCNvXs0_NtNtCsbkbnPoCG8ZW_7vm_core2gc12generationalNtB7_14GenerationalGCNtB9_10GCStrategy13write_barrier0Bb_
FNDA:0,_RNCNvXs0_NtNtCsbkbnPoCG8ZW_7vm_core2gc12generationalNtB7_14GenerationalGCNtB9_10GCStrategy13write_barriers0_0Bb_
FNDA:0,_RNvMNtNtCsbkbnPoCG8ZW_7vm_core2gc12generationalNtB2_9CardTable10card_index
FNDA:0,_RNvMNtNtCsbkbnPoCG8ZW_7vm_core2gc12generationalNtB2_9CardTable10mark_dirty
FNDA:0,_RNvMNtNtCsbkbnPoCG8ZW_7vm_core2gc12generationalNtB2_9CardTable12dirty_ranges
FNDA:0,_RNvMNtNtCsbkbnPoCG8ZW_7vm_core2gc12generationalNtB2_9CardTable3new
FNDA:0,_RNvMNtNtCsbkbnPoCG8ZW_7vm_core2gc12generationalNtB2_9CardTable9clear_all
FNDA:0,_RNvMs_NtNtCsbkbnPoCG8ZW_7vm_core2gc12generationalNtB4_14GenerationalGC17allocate_in_young
FNDA:0,_RNvMs_NtNtCsbkbnPoCG8ZW_7vm_core2gc12generationalNtB4_14GenerationalGC24allocate_in_young_direct
FNDA:0,_RNvMs_NtNtCsbkbnPoCG8ZW_7vm_core2gc12generationalNtB4_14GenerationalGC3new
FNDA:0,_RNvMs_NtNtCsbkbnPoCG8ZW_7vm_core2gc12generationalNtB4_14GenerationalGC8major_gc
FNDA:0,_RNvMs_NtNtCsbkbnPoCG8ZW_7vm_core2gc12generationalNtB4_14GenerationalGC8minor_gc
FNDA:0,_RNvXs0_NtNtCsbkbnPoCG8ZW_7vm_core2gc12generationalNtB5_14GenerationalGCNtB7_10GCStrategy11reset_stats
FNDA:0,_RNvXs0_NtNtCsbkbnPoCG8ZW_7vm_core2gc12generationalNtB5_14GenerationalGCNtB7_10GCStrategy12get_gc_stats
FNDA:0,_RNvXs0_NtNtCsbkbnPoCG8ZW_7vm_core2gc12generationalNtB5_14GenerationalGCNtB7_10GCStrategy13write_barrier
FNDA:0,_RNvXs0_NtNtCsbkbnPoCG8ZW_7vm_core2gc12generationalNtB5_14GenerationalGCNtB7_10GCStrategy14get_heap_stats
FNDA:0,_RNvXs0_NtNtCsbkbnPoCG8ZW_7vm_core2gc12generationalNtB5_14GenerationalGCNtB7_10GCStrategy7collect
FNDA:0,_RNvXs0_NtNtCsbkbnPoCG8ZW_7vm_core2gc12generationalNtB5_14GenerationalGCNtB7_10GCStrategy8allocate
FNDA:0,_RNCNvXs0_NtNtCsbkbnPoCG8ZW_7vm_core2gc12generationalNtB7_14GenerationalGCNtB9_10GCStrategy13write_barriers_0Bb_
FNDA:0,_RNCNvMs_NtNtCsbkbnPoCG8ZW_7vm_core2gc12generationalNtB6_14GenerationalGC17allocate_in_young0Ba_
FNDA:0,_RNCNvMs_NtNtCsbkbnPoCG8ZW_7vm_core2gc12generationalNtB6_14GenerationalGC17allocate_in_youngs_0Ba_
FNDA:0,_RNCNvXs0_NtNtCsbkbnPoCG8ZW_7vm_core2gc12generationalNtB7_14GenerationalGCNtB9_10GCStrategy14get_heap_stats0Bb_
FNDA:0,_RNCNvXs0_NtNtCsbkbnPoCG8ZW_7vm_core2gc12generationalNtB7_14GenerationalGCNtB9_10GCStrategy14get_heap_statss_0Bb_
FNDA:0,_RNCNvMs_NtNtCsbkbnPoCG8ZW_7vm_core2gc12generationalNtB6_14GenerationalGC8major_gc0Ba_
FNDA:0,_RNCNvMs_NtNtCsbkbnPoCG8ZW_7vm_core2gc12generationalNtB6_14GenerationalGC8major_gcs_0Ba_
FNF:25
FNH:0
DA:33,0
DA:34,0
DA:35,0
DA:36,0
DA:37,0
DA:38,0
DA:39,0
DA:40,0
DA:41,0
DA:44,0
DA:45,0
DA:46,0
DA:47,0
DA:48,0
DA:49,0
DA:50,0
DA:53,0
DA:54,0
DA:55,0
DA:56,0
DA:57,0
DA:58,0
DA:59,0
DA:60,0
DA:61,0
DA:72,0
DA:73,0
DA:74,0
DA:75,0
DA:76,0
DA:79,0
DA:80,0
DA:81,0
DA:82,0
DA:84,0
DA:85,0
DA:86,0
DA:87,0
DA:88,0
DA:89,0
DA:90,0
DA:91,0
DA:92,0
DA:95,0
DA:96,0
DA:97,0
DA:99,0
DA:100,0
DA:160,0
DA:161,0
DA:162,0
DA:163,0
DA:164,0
DA:165,0
DA:166,0
DA:167,0
DA:169,0
DA:170,0
DA:171,0
DA:172,0
DA:174,0
DA:177,0
DA:179,0
DA:180,0
DA:181,0
DA:182,0
DA:183,0
DA:184,0
DA:185,0
DA:186,0
DA:187,0
DA:188,0
DA:189,0
DA:192,0
DA:194,0
DA:198,0
DA:199,0
DA:200,0
DA:201,0
DA:202,0
DA:203,0
DA:204,0
DA:206,0
DA:207,0
DA:208,0
DA:212,0
DA:216,0
DA:217,0
DA:218,0
DA:219,0
DA:220,0
DA:221,0
DA:222,0
DA:223,0
DA:224,0
DA:225,0
DA:226,0
DA:227,0
DA:230,0
DA:231,0
DA:234,0
DA:235,0
DA:236,0
DA:237,0
DA:238,0
DA:239,0
DA:240,0
DA:276,0
DA:277,0
DA:278,0
DA:280,0
DA:281,0
DA:282,0
DA:285,0
DA:288,0
DA:290,0
DA:291,0
DA:292,0
DA:293,0
DA:294,0
DA:296,0
DA:297,0
DA:298,0
DA:299,0
DA:300,0
DA:307,0
DA:309,0
DA:311,0
DA:312,0
DA:315,0
DA:316,0
DA:317,0
DA:326,0
DA:327,0
DA:328,0
DA:330,0
DA:332,0
DA:333,0
DA:334,0
DA:335,0
DA:336,0
DA:337,0
DA:340,0
DA:341,0
DA:342,0
DA:343,0
DA:344,0
DA:345,0
DA:347,0
DA:348,0
DA:350,0
DA:355,0
DA:359,0
DA:360,0
DA:362,0
DA:363,0
DA:364,0
DA:365,0
DA:366,0
DA:367,0
DA:368,0
DA:372,0
DA:373,0
DA:374,0
DA:375,0
DA:376,0
DA:377,0
DA:378,0
DA:381,0
DA:382,0
DA:384,0
DA:385,0
DA:386,0
DA:388,0
DA:389,0
DA:390,0
DA:393,0
DA:394,0
DA:397,0
DA:398,0
DA:399,0
DA:402,0
DA:403,0
DA:404,0
DA:405,0
DA:406,0
DA:407,0
DA:408,0
DA:409,0
DA:412,0
DA:414,0
DA:415,0
DA:418,0
DA:419,0
DA:420,0
DA:422,0
DA:423,0
DA:424,0
DA:427,0
DA:429,0
DA:430,0
DA:431,0
DA:432,0
DA:433,0
DA:434,0
DA:435,0
DA:436,0
DA:439,0
DA:440,0
DA:441,0
DA:442,0
DA:444,0
DA:445,0
DA:446,0
DA:447,0
DA:450,0
DA:451,0
DA:452,0
DA:453,0
DA:454,0
DA:455,0
DA:457,0
DA:460,0
DA:461,0
DA:462,0
DA:463,0
DA:464,0
DA:465,0
DA:466,0
DA:468,0
DA:469,0
DA:473,0
DA:474,0
DA:475,0
DA:477,0
DA:478,0
DA:479,0
DA:482,0
DA:483,0
DA:484,0
DA:485,0
DA:487,0
DA:488,0
DA:489,0
DA:491,0
DA:492,0
DA:493,0
DA:496,0
DA:498,0
DA:510,0
DA:511,0
DA:512,0
DA:515,0
DA:516,0
DA:518,0
DA:519,0
DA:520,0
DA:521,0
DA:523,0
DA:524,0
DA:525,0
DA:526,0
DA:527,0
DA:529,0
DA:533,0
DA:534,0
DA:535,0
DA:538,0
DA:539,0
DA:540,0
DA:544,0
DA:545,0
DA:546,0
DA:547,0
DA:549,0
DA:550,0
DA:551,0
DA:553,0
DA:554,0
DA:555,0
DA:556,0
DA:557,0
DA:558,0
DA:559,0
DA:560,0
DA:561,0
DA:562,0
DA:564,0
DA:565,0
DA:566,0
DA:567,0
DA:568,0
DA:569,0
DA:570,0
DA:571,0
DA:572,0
DA:574,0
DA:575,0
DA:576,0
DA:578,0
DA:579,0
DA:580,0
BRF:0
BRH:0
LF:311
LH:0
end_of_record
SF:/Users/didi/Desktop/vm/vm-core/src/gc/metrics.rs
FN:37,_RNvMNtNtCsbkbnPoCG8ZW_7vm_core2gc7metricsNtB2_7GCStats10throughput
FN:55,_RNvMNtNtCsbkbnPoCG8ZW_7vm_core2gc7metricsNtB2_7GCStats16heap_utilization
FN:46,_RNvMNtNtCsbkbnPoCG8ZW_7vm_core2gc7metricsNtB2_7GCStats18avg_objects_per_gc
FN:163,_RNvMs1_NtNtCsbkbnPoCG8ZW_7vm_core2gc7metricsNtB5_9GCMetrics11begin_phase
FN:224,_RNvMs1_NtNtCsbkbnPoCG8ZW_7vm_core2gc7metricsNtB5_9GCMetrics13current_phase
FN:206,_RNvMs1_NtNtCsbkbnPoCG8ZW_7vm_core2gc7metricsNtB5_9GCMetrics16update_heap_size
FN:181,_RNvMs1_NtNtCsbkbnPoCG8ZW_7vm_core2gc7metricsNtB5_9GCMetrics17record_collection
FN:153,_RNvMs1_NtNtCsbkbnPoCG8ZW_7vm_core2gc7metricsNtB5_9GCMetrics3new
FN:217,_RNvMs1_NtNtCsbkbnPoCG8ZW_7vm_core2gc7metricsNtB5_9GCMetrics5reset
FN:229,_RNvMs1_NtNtCsbkbnPoCG8ZW_7vm_core2gc7metricsNtB5_9GCMetrics7gc_type
FN:169,_RNvMs1_NtNtCsbkbnPoCG8ZW_7vm_core2gc7metricsNtB5_9GCMetrics9end_phase
FN:212,_RNvMs1_NtNtCsbkbnPoCG8ZW_7vm_core2gc7metricsNtB5_9GCMetrics9get_stats
FN:270,_RNvMs2_NtNtCsbkbnPoCG8ZW_7vm_core2gc7metricsNtB5_15AtomicGCMetrics15allocation_rate
FN:258,_RNvMs2_NtNtCsbkbnPoCG8ZW_7vm_core2gc7metricsNtB5_15AtomicGCMetrics17record_allocation
FN:248,_RNvMs2_NtNtCsbkbnPoCG8ZW_7vm_core2gc7metricsNtB5_15AtomicGCMetrics3new
FN:265,_RNvMs2_NtNtCsbkbnPoCG8ZW_7vm_core2gc7metricsNtB5_15AtomicGCMetrics8begin_gc
FN:124,_RNvMs_NtNtCsbkbnPoCG8ZW_7vm_core2gc7metricsNtB4_11GCHeapStats13survival_rate
FN:104,_RNvMs_NtNtCsbkbnPoCG8ZW_7vm_core2gc7metricsNtB4_11GCHeapStats19old_gen_utilization
FN:113,_RNvMs_NtNtCsbkbnPoCG8ZW_7vm_core2gc7metricsNtB4_11GCHeapStats19overall_utilization
FN:95,_RNvMs_NtNtCsbkbnPoCG8ZW_7vm_core2gc7metricsNtB4_11GCHeapStats21young_gen_utilization
FN:83,_RNvMs_NtNtCsbkbnPoCG8ZW_7vm_core2gc7metricsNtB4_11GCHeapStats3new
FN:134,_RNvXs0_NtNtCsbkbnPoCG8ZW_7vm_core2gc7metricsNtB5_11GCHeapStatsNtNtCskzPJi2J8k3N_4core7default7Default7default
FN:280,_RNvXs3_NtNtCsbkbnPoCG8ZW_7vm_core2gc7metricsNtB5_15AtomicGCMetricsNtNtCskzPJi2J8k3N_4core7default7Default7default
FNDA:0,_RNvMNtNtCsbkbnPoCG8ZW_7vm_core2gc7metricsNtB2_7GCStats10throughput
FNDA:0,_RNvMNtNtCsbkbnPoCG8ZW_7vm_core2gc7metricsNtB2_7GCStats16heap_utilization
FNDA:0,_RNvMNtNtCsbkbnPoCG8ZW_7vm_core2gc7metricsNtB2_7GCStats18avg_objects_per_gc
FNDA:0,_RNvMs1_NtNtCsbkbnPoCG8ZW_7vm_core2gc7metricsNtB5_9GCMetrics11begin_phase
FNDA:0,_RNvMs1_NtNtCsbkbnPoCG8ZW_7vm_core2gc7metricsNtB5_9GCMetrics13current_phase
FNDA:0,_RNvMs1_NtNtCsbkbnPoCG8ZW_7vm_core2gc7metricsNtB5_9GCMetrics16update_heap_size
FNDA:0,_RNvMs1_NtNtCsbkbnPoCG8ZW_7vm_core2gc7metricsNtB5_9GCMetrics17record_collection
FNDA:0,_RNvMs1_NtNtCsbkbnPoCG8ZW_7vm_core2gc7metricsNtB5_9GCMetrics3new
FNDA:0,_RNvMs1_NtNtCsbkbnPoCG8ZW_7vm_core2gc7metricsNtB5_9GCMetrics5reset
FNDA:0,_RNvMs1_NtNtCsbkbnPoCG8ZW_7vm_core2gc7metricsNtB5_9GCMetrics7gc_type
FNDA:0,_RNvMs1_NtNtCsbkbnPoCG8ZW_7vm_core2gc7metricsNtB5_9GCMetrics9end_phase
FNDA:0,_RNvMs1_NtNtCsbkbnPoCG8ZW_7vm_core2gc7metricsNtB5_9GCMetrics9get_stats
FNDA:0,_RNvMs2_NtNtCsbkbnPoCG8ZW_7vm_core2gc7metricsNtB5_15AtomicGCMetrics15allocation_rate
FNDA:0,_RNvMs2_NtNtCsbkbnPoCG8ZW_7vm_core2gc7metricsNtB5_15AtomicGCMetrics17record_allocation
FNDA:0,_RNvMs2_NtNtCsbkbnPoCG8ZW_7vm_core2gc7metricsNtB5_15AtomicGCMetrics3new
FNDA:0,_RNvMs2_NtNtCsbkbnPoCG8ZW_7vm_core2gc7metricsNtB5_15AtomicGCMetrics8begin_gc
FNDA:0,_RNvMs_NtNtCsbkbnPoCG8ZW_7vm_core2gc7metricsNtB4_11GCHeapStats13survival_rate
FNDA:0,_RNvMs_NtNtCsbkbnPoCG8ZW_7vm_core2gc7metricsNtB4_11GCHeapStats19old_gen_utilization
FNDA:0,_RNvMs_NtNtCsbkbnPoCG8ZW_7vm_core2gc7metricsNtB4_11GCHeapStats19overall_utilization
FNDA:0,_RNvMs_NtNtCsbkbnPoCG8ZW_7vm_core2gc7metricsNtB4_11GCHeapStats21young_gen_utilization
FNDA:0,_RNvMs_NtNtCsbkbnPoCG8ZW_7vm_core2gc7metricsNtB4_11GCHeapStats3new
FNDA:0,_RNvXs0_NtNtCsbkbnPoCG8ZW_7vm_core2gc7metricsNtB5_11GCHeapStatsNtNtCskzPJi2J8k3N_4core7default7Default7default
FNDA:0,_RNvXs3_NtNtCsbkbnPoCG8ZW_7vm_core2gc7metricsNtB5_15AtomicGCMetricsNtNtCskzPJi2J8k3N_4core7default7Default7default
FNF:23
FNH:0
DA:37,0
DA:38,0
DA:39,0
DA:41,0
DA:43,0
DA:46,0
DA:47,0
DA:48,0
DA:50,0
DA:52,0
DA:55,0
DA:56,0
DA:57,0
DA:59,0
DA:61,0
DA:83,0
DA:84,0
DA:85,0
DA:86,0
DA:87,0
DA:88,0
DA:89,0
DA:90,0
DA:91,0
DA:92,0
DA:95,0
DA:96,0
DA:97,0
DA:99,0
DA:101,0
DA:104,0
DA:105,0
DA:106,0
DA:108,0
DA:110,0
DA:113,0
DA:114,0
DA:115,0
DA:116,0
DA:117,0
DA:119,0
DA:121,0
DA:124,0
DA:125,0
DA:126,0
DA:128,0
DA:130,0
DA:134,0
DA:135,0
DA:136,0
DA:153,0
DA:154,0
DA:155,0
DA:156,0
DA:157,0
DA:158,0
DA:159,0
DA:160,0
DA:163,0
DA:164,0
DA:165,0
DA:166,0
DA:169,0
DA:170,0
DA:171,0
DA:172,0
DA:173,0
DA:174,0
DA:176,0
DA:178,0
DA:181,0
DA:182,0
DA:183,0
DA:184,0
DA:185,0
DA:186,0
DA:187,0
DA:188,0
DA:189,0
DA:190,0
DA:191,0
DA:192,0
DA:193,0
DA:195,0
DA:196,0
DA:197,0
DA:198,0
DA:199,0
DA:201,0
DA:202,0
DA:203,0
DA:206,0
DA:207,0
DA:208,0
DA:209,0
DA:212,0
DA:213,0
DA:214,0
DA:217,0
DA:218,0
DA:219,0
DA:220,0
DA:221,0
DA:224,0
DA:225,0
DA:226,0
DA:229,0
DA:230,0
DA:231,0
DA:248,0
DA:249,0
DA:250,0
DA:251,0
DA:252,0
DA:253,0
DA:254,0
DA:255,0
DA:258,0
DA:259,0
DA:260,0
DA:261,0
DA:262,0
DA:265,0
DA:266,0
DA:267,0
DA:270,0
DA:271,0
DA:272,0
DA:274,0
DA:276,0
DA:280,0
DA:281,0
DA:282,0
BRF:0
BRH:0
LF:133
LH:0
end_of_record
SF:/Users/didi/Desktop/vm/vm-core/src/gc/object.rs
FN:124,_RNvMs0_NtNtCsbkbnPoCG8ZW_7vm_core2gc6objectNtB5_11GCObjectPtr3new
FN:134,_RNvMs0_NtNtCsbkbnPoCG8ZW_7vm_core2gc6objectNtB5_11GCObjectPtr4addr
FN:116,_RNvMs0_NtNtCsbkbnPoCG8ZW_7vm_core2gc6objectNtB5_11GCObjectPtr4null
FN:129,_RNvMs0_NtNtCsbkbnPoCG8ZW_7vm_core2gc6objectNtB5_11GCObjectPtr7is_null
FN:139,_RNvMs0_NtNtCsbkbnPoCG8ZW_7vm_core2gc6objectNtB5_11GCObjectPtr7version
FN:155,_RNvMs1_NtNtCsbkbnPoCG8ZW_7vm_core2gc6objectNtB5_11GCObjectRef3new
FN:163,_RNvMs1_NtNtCsbkbnPoCG8ZW_7vm_core2gc6objectNtB5_11GCObjectRef3ptr
FN:219,_RNvMs2_NtNtCsbkbnPoCG8ZW_7vm_core2gc6objectNtB5_8GCObject10header_mut
FN:206,_RNvMs2_NtNtCsbkbnPoCG8ZW_7vm_core2gc6objectNtB5_8GCObject3new
FN:224,_RNvMs2_NtNtCsbkbnPoCG8ZW_7vm_core2gc6objectNtB5_8GCObject4data
FN:234,_RNvMs2_NtNtCsbkbnPoCG8ZW_7vm_core2gc6objectNtB5_8GCObject6as_ptr
FN:214,_RNvMs2_NtNtCsbkbnPoCG8ZW_7vm_core2gc6objectNtB5_8GCObject6header
FN:229,_RNvMs2_NtNtCsbkbnPoCG8ZW_7vm_core2gc6objectNtB5_8GCObject8data_mut
FN:94,_RNvMs_NtNtCsbkbnPoCG8ZW_7vm_core2gc6objectNtB4_12ObjectHeader13increment_age
FN:52,_RNvMs_NtNtCsbkbnPoCG8ZW_7vm_core2gc6objectNtB4_12ObjectHeader3new
FN:99,_RNvMs_NtNtCsbkbnPoCG8ZW_7vm_core2gc6objectNtB4_12ObjectHeader5reset
FN:89,_RNvMs_NtNtCsbkbnPoCG8ZW_7vm_core2gc6objectNtB4_12ObjectHeader7get_age
FN:74,_RNvMs_NtNtCsbkbnPoCG8ZW_7vm_core2gc6objectNtB4_12ObjectHeader8get_size
FN:62,_RNvMs_NtNtCsbkbnPoCG8ZW_7vm_core2gc6objectNtB4_12ObjectHeader8get_type
FN:84,_RNvMs_NtNtCsbkbnPoCG8ZW_7vm_core2gc6objectNtB4_12ObjectHeader8set_mark
FN:79,_RNvMs_NtNtCsbkbnPoCG8ZW_7vm_core2gc6objectNtB4_12ObjectHeader9is_marked
FN:40,_RNvXNtNtCsbkbnPoCG8ZW_7vm_core2gc6objectNtB2_12ObjectHeaderNtNtCskzPJi2J8k3N_4core5clone5Clone5clone
FNDA:0,_RNvMs0_NtNtCsbkbnPoCG8ZW_7vm_core2gc6objectNtB5_11GCObjectPtr3new
FNDA:0,_RNvMs0_NtNtCsbkbnPoCG8ZW_7vm_core2gc6objectNtB5_11GCObjectPtr4addr
FNDA:0,_RNvMs0_NtNtCsbkbnPoCG8ZW_7vm_core2gc6objectNtB5_11GCObjectPtr4null
FNDA:0,_RNvMs0_NtNtCsbkbnPoCG8ZW_7vm_core2gc6objectNtB5_11GCObjectPtr7is_null
FNDA:0,_RNvMs0_NtNtCsbkbnPoCG8ZW_7vm_core2gc6objectNtB5_11GCObjectPtr7version
FNDA:0,_RNvMs1_NtNtCsbkbnPoCG8ZW_7vm_core2gc6objectNtB5_11GCObjectRef3new
FNDA:0,_RNvMs1_NtNtCsbkbnPoCG8ZW_7vm_core2gc6objectNtB5_11GCObjectRef3ptr
FNDA:0,_RNvMs2_NtNtCsbkbnPoCG8ZW_7vm_core2gc6objectNtB5_8GCObject10header_mut
FNDA:0,_RNvMs2_NtNtCsbkbnPoCG8ZW_7vm_core2gc6objectNtB5_8GCObject3new
FNDA:0,_RNvMs2_NtNtCsbkbnPoCG8ZW_7vm_core2gc6objectNtB5_8GCObject4data
FNDA:0,_RNvMs2_NtNtCsbkbnPoCG8ZW_7vm_core2gc6objectNtB5_8GCObject6as_ptr
FNDA:0,_RNvMs2_NtNtCsbkbnPoCG8ZW_7vm_core2gc6objectNtB5_8GCObject6header
FNDA:0,_RNvMs2_NtNtCsbkbnPoCG8ZW_7vm_core2gc6objectNtB5_8GCObject8data_mut
FNDA:0,_RNvMs_NtNtCsbkbnPoCG8ZW_7vm_core2gc6objectNtB4_12ObjectHeader13increment_age
FNDA:0,_RNvMs_NtNtCsbkbnPoCG8ZW_7vm_core2gc6objectNtB4_12ObjectHeader3new
FNDA:0,_RNvMs_NtNtCsbkbnPoCG8ZW_7vm_core2gc6objectNtB4_12ObjectHeader5reset
FNDA:0,_RNvMs_NtNtCsbkbnPoCG8ZW_7vm_core2gc6objectNtB4_12ObjectHeader7get_age
FNDA:0,_RNvMs_NtNtCsbkbnPoCG8ZW_7vm_core2gc6objectNtB4_12ObjectHeader8get_size
FNDA:0,_RNvMs_NtNtCsbkbnPoCG8ZW_7vm_core2gc6objectNtB4_12ObjectHeader8get_type
FNDA:0,_RNvMs_NtNtCsbkbnPoCG8ZW_7vm_core2gc6objectNtB4_12ObjectHeader8set_mark
FNDA:0,_RNvMs_NtNtCsbkbnPoCG8ZW_7vm_core2gc6objectNtB4_12ObjectHeader9is_marked
FNDA:0,_RNvXNtNtCsbkbnPoCG8ZW_7vm_core2gc6objectNtB2_12ObjectHeaderNtNtCskzPJi2J8k3N_4core5clone5Clone5clone
FNF:22
FNH:0
DA:40,0
DA:41,0
DA:42,0
DA:43,0
DA:44,0
DA:45,0
DA:46,0
DA:47,0
DA:52,0
DA:53,0
DA:54,0
DA:55,0
DA:56,0
DA:57,0
DA:58,0
DA:59,0
DA:62,0
DA:63,0
DA:64,0
DA:65,0
DA:66,0
DA:67,0
DA:68,0
DA:69,0
DA:71,0
DA:74,0
DA:75,0
DA:76,0
DA:79,0
DA:80,0
DA:81,0
DA:84,0
DA:85,0
DA:86,0
DA:89,0
DA:90,0
DA:91,0
DA:94,0
DA:95,0
DA:96,0
DA:99,0
DA:100,0
DA:101,0
DA:102,0
DA:116,0
DA:117,0
DA:118,0
DA:119,0
DA:120,0
DA:121,0
DA:124,0
DA:125,0
DA:126,0
DA:129,0
DA:130,0
DA:131,0
DA:134,0
DA:135,0
DA:136,0
DA:139,0
DA:140,0
DA:141,0
DA:155,0
DA:156,0
DA:157,0
DA:158,0
DA:159,0
DA:160,0
DA:163,0
DA:164,0
DA:165,0
DA:206,0
DA:207,0
DA:208,0
DA:210,0
DA:211,0
DA:214,0
DA:215,0
DA:216,0
DA:219,0
DA:220,0
DA:221,0
DA:224,0
DA:225,0
DA:226,0
DA:229,0
DA:230,0
DA:231,0
DA:234,0
DA:235,0
DA:236,0
BRF:0
BRH:0
LF:91
LH:0
end_of_record
SF:/Users/didi/Desktop/vm/vm-core/src/gc/parallel_sweep.rs
FN:156,_RNCNvMs0_NtNtCsbkbnPoCG8ZW_7vm_core2gc14parallel_sweepNtB7_15ParallelSweeper3new0Bb_
FN:532,_RNCNvMs0_NtNtCsbkbnPoCG8ZW_7vm_core2gc14parallel_sweepNtB7_15ParallelSweeper8shutdown0Bb_
FN:572,_RNCNvXs1_NtNtCsbkbnPoCG8ZW_7vm_core2gc14parallel_sweepNtB7_15ParallelSweeperNtNtNtCskzPJi2J8k3N_4core3ops4drop4Drop4drop0Bb_
FN:554,_RNvXs1_NtNtCsbkbnPoCG8ZW_7vm_core2gc14parallel_sweepNtB5_15ParallelSweeperNtNtNtCskzPJi2J8k3N_4core3ops4drop4Drop4drop
FN:614,_RNCNvNtNtCsbkbnPoCG8ZW_7vm_core2gc14parallel_sweep22parallel_sweep_objects0B7_
FN:449,_RNCNvMs0_NtNtCsbkbnPoCG8ZW_7vm_core2gc14parallel_sweepNtB7_15ParallelSweeper8wait_all0Bb_
FN:60,_RNCNvXNtNtCsbkbnPoCG8ZW_7vm_core2gc14parallel_sweepNtB4_19ParallelSweepConfigNtNtCskzPJi2J8k3N_4core7default7Default7default0B8_
FN:501,_RNvMs0_NtNtCsbkbnPoCG8ZW_7vm_core2gc14parallel_sweepNtB5_15ParallelSweeper11get_results
FN:182,_RNvMs0_NtNtCsbkbnPoCG8ZW_7vm_core2gc14parallel_sweepNtB5_15ParallelSweeper11worker_loop
FN:434,_RNvMs0_NtNtCsbkbnPoCG8ZW_7vm_core2gc14parallel_sweepNtB5_15ParallelSweeper12submit_tasks
FN:376,_RNvMs0_NtNtCsbkbnPoCG8ZW_7vm_core2gc14parallel_sweepNtB5_15ParallelSweeper15get_object_size
FN:304,_RNvMs0_NtNtCsbkbnPoCG8ZW_7vm_core2gc14parallel_sweepNtB5_15ParallelSweeper17check_object_mark
FN:346,_RNvMs0_NtNtCsbkbnPoCG8ZW_7vm_core2gc14parallel_sweepNtB5_15ParallelSweeper17clear_object_mark
FN:249,_RNvMs0_NtNtCsbkbnPoCG8ZW_7vm_core2gc14parallel_sweepNtB5_15ParallelSweeper18execute_sweep_task
FN:420,_RNvMs0_NtNtCsbkbnPoCG8ZW_7vm_core2gc14parallel_sweepNtB5_15ParallelSweeper21reclaim_object_memory
FN:135,_RNvMs0_NtNtCsbkbnPoCG8ZW_7vm_core2gc14parallel_sweepNtB5_15ParallelSweeper3new
FN:516,_RNvMs0_NtNtCsbkbnPoCG8ZW_7vm_core2gc14parallel_sweepNtB5_15ParallelSweeper8shutdown
FN:443,_RNvMs0_NtNtCsbkbnPoCG8ZW_7vm_core2gc14parallel_sweepNtB5_15ParallelSweeper8wait_all
FN:511,_RNvMs0_NtNtCsbkbnPoCG8ZW_7vm_core2gc14parallel_sweepNtB5_15ParallelSweeper9get_stats
FN:118,_RNvMs_NtNtCsbkbnPoCG8ZW_7vm_core2gc14parallel_sweepNtB4_10SweepStats11avg_time_us
FN:128,_RNvMs_NtNtCsbkbnPoCG8ZW_7vm_core2gc14parallel_sweepNtB4_10SweepStats11steal_count
FN:108,_RNvMs_NtNtCsbkbnPoCG8ZW_7vm_core2gc14parallel_sweepNtB4_10SweepStats19total_objects_swept
FN:113,_RNvMs_NtNtCsbkbnPoCG8ZW_7vm_core2gc14parallel_sweepNtB4_10SweepStats21total_bytes_reclaimed
FN:599,_RNvNtNtCsbkbnPoCG8ZW_7vm_core2gc14parallel_sweep22parallel_sweep_objects
FN:58,_RNvXNtNtCsbkbnPoCG8ZW_7vm_core2gc14parallel_sweepNtB2_19ParallelSweepConfigNtNtCskzPJi2J8k3N_4core7default7Default7default
FNDA:0,_RNCNvMs0_NtNtCsbkbnPoCG8ZW_7vm_core2gc14parallel_sweepNtB7_15ParallelSweeper3new0Bb_
FNDA:0,_RNCNvMs0_NtNtCsbkbnPoCG8ZW_7vm_core2gc14parallel_sweepNtB7_15ParallelSweeper8shutdown0Bb_
FNDA:0,_RNCNvXs1_NtNtCsbkbnPoCG8ZW_7vm_core2gc14parallel_sweepNtB7_15ParallelSweeperNtNtNtCskzPJi2J8k3N_4core3ops4drop4Drop4drop0Bb_
FNDA:0,_RNvXs1_NtNtCsbkbnPoCG8ZW_7vm_core2gc14parallel_sweepNtB5_15ParallelSweeperNtNtNtCskzPJi2J8k3N_4core3ops4drop4Drop4drop
FNDA:0,_RNCNvNtNtCsbkbnPoCG8ZW_7vm_core2gc14parallel_sweep22parallel_sweep_objects0B7_
FNDA:0,_RNCNvMs0_NtNtCsbkbnPoCG8ZW_7vm_core2gc14parallel_sweepNtB7_15ParallelSweeper8wait_all0Bb_
FNDA:0,_RNCNvXNtNtCsbkbnPoCG8ZW_7vm_core2gc14parallel_sweepNtB4_19ParallelSweepConfigNtNtCskzPJi2J8k3N_4core7default7Default7default0B8_
FNDA:0,_RNvMs0_NtNtCsbkbnPoCG8ZW_7vm_core2gc14parallel_sweepNtB5_15ParallelSweeper11get_results
FNDA:0,_RNvMs0_NtNtCsbkbnPoCG8ZW_7vm_core2gc14parallel_sweepNtB5_15ParallelSweeper11worker_loop
FNDA:0,_RNvMs0_NtNtCsbkbnPoCG8ZW_7vm_core2gc14parallel_sweepNtB5_15ParallelSweeper12submit_tasks
FNDA:0,_RNvMs0_NtNtCsbkbnPoCG8ZW_7vm_core2gc14parallel_sweepNtB5_15ParallelSweeper15get_object_size
FNDA:0,_RNvMs0_NtNtCsbkbnPoCG8ZW_7vm_core2gc14parallel_sweepNtB5_15ParallelSweeper17check_object_mark
FNDA:0,_RNvMs0_NtNtCsbkbnPoCG8ZW_7vm_core2gc14parallel_sweepNtB5_15ParallelSweeper17clear_object_mark
FNDA:0,_RNvMs0_NtNtCsbkbnPoCG8ZW_7vm_core2gc14parallel_sweepNtB5_15ParallelSweeper18execute_sweep_task
FNDA:0,_RNvMs0_NtNtCsbkbnPoCG8ZW_7vm_core2gc14parallel_sweepNtB5_15ParallelSweeper21reclaim_object_memory
FNDA:0,_RNvMs0_NtNtCsbkbnPoCG8ZW_7vm_core2gc14parallel_sweepNtB5_15ParallelSweeper3new
FNDA:0,_RNvMs0_NtNtCsbkbnPoCG8ZW_7vm_core2gc14parallel_sweepNtB5_15ParallelSweeper8shutdown
FNDA:0,_RNvMs0_NtNtCsbkbnPoCG8ZW_7vm_core2gc14parallel_sweepNtB5_15ParallelSweeper8wait_all
FNDA:0,_RNvMs0_NtNtCsbkbnPoCG8ZW_7vm_core2gc14parallel_sweepNtB5_15ParallelSweeper9get_stats
FNDA:0,_RNvMs_NtNtCsbkbnPoCG8ZW_7vm_core2gc14parallel_sweepNtB4_10SweepStats11avg_time_us
FNDA:0,_RNvMs_NtNtCsbkbnPoCG8ZW_7vm_core2gc14parallel_sweepNtB4_10SweepStats11steal_count
FNDA:0,_RNvMs_NtNtCsbkbnPoCG8ZW_7vm_core2gc14parallel_sweepNtB4_10SweepStats19total_objects_swept
FNDA:0,_RNvMs_NtNtCsbkbnPoCG8ZW_7vm_core2gc14parallel_sweepNtB4_10SweepStats21total_bytes_reclaimed
FNDA:0,_RNvNtNtCsbkbnPoCG8ZW_7vm_core2gc14parallel_sweep22parallel_sweep_objects
FNDA:0,_RNvXNtNtCsbkbnPoCG8ZW_7vm_core2gc14parallel_sweepNtB2_19ParallelSweepConfigNtNtCskzPJi2J8k3N_4core7default7Default7default
FNF:25
FNH:0
DA:58,0
DA:59,0
DA:60,0
DA:61,0
DA:63,0
DA:64,0
DA:65,0
DA:66,0
DA:67,0
DA:68,0
DA:69,0
DA:108,0
DA:109,0
DA:110,0
DA:113,0
DA:114,0
DA:115,0
DA:118,0
DA:119,0
DA:120,0
DA:121,0
DA:122,0
DA:123,0
DA:124,0
DA:125,0
DA:128,0
DA:129,0
DA:130,0
DA:135,0
DA:136,0
DA:137,0
DA:138,0
DA:139,0
DA:142,0
DA:143,0
DA:144,0
DA:145,0
DA:148,0
DA:149,0
DA:150,0
DA:151,0
DA:152,0
DA:153,0
DA:154,0
DA:156,0
DA:157,0
DA:158,0
DA:159,0
DA:160,0
DA:161,0
DA:162,0
DA:163,0
DA:165,0
DA:167,0
DA:170,0
DA:171,0
DA:172,0
DA:173,0
DA:174,0
DA:175,0
DA:176,0
DA:177,0
DA:178,0
DA:179,0
DA:182,0
DA:183,0
DA:184,0
DA:185,0
DA:186,0
DA:187,0
DA:188,0
DA:189,0
DA:190,0
DA:192,0
DA:193,0
DA:197,0
DA:198,0
DA:201,0
DA:202,0
DA:203,0
DA:204,0
DA:205,0
DA:206,0
DA:207,0
DA:210,0
DA:211,0
DA:214,0
DA:215,0
DA:216,0
DA:222,0
DA:223,0
DA:224,0
DA:227,0
DA:228,0
DA:229,0
DA:230,0
DA:231,0
DA:232,0
DA:233,0
DA:234,0
DA:235,0
DA:238,0
DA:240,0
DA:249,0
DA:250,0
DA:252,0
DA:253,0
DA:255,0
DA:257,0
DA:258,0
DA:259,0
DA:268,0
DA:270,0
DA:271,0
DA:272,0
DA:273,0
DA:274,0
DA:275,0
DA:276,0
DA:277,0
DA:278,0
DA:279,0
DA:280,0
DA:281,0
DA:282,0
DA:283,0
DA:284,0
DA:285,0
DA:286,0
DA:287,0
DA:288,0
DA:291,0
DA:293,0
DA:294,0
DA:295,0
DA:296,0
DA:297,0
DA:298,0
DA:299,0
DA:304,0
DA:305,0
DA:306,0
DA:307,0
DA:309,0
DA:313,0
DA:315,0
DA:316,0
DA:319,0
DA:320,0
DA:321,0
DA:325,0
DA:326,0
DA:327,0
DA:330,0
DA:336,0
DA:337,0
DA:339,0
DA:341,0
DA:346,0
DA:347,0
DA:348,0
DA:349,0
DA:351,0
DA:354,0
DA:356,0
DA:357,0
DA:360,0
DA:361,0
DA:362,0
DA:364,0
DA:365,0
DA:366,0
DA:367,0
DA:368,0
DA:369,0
DA:370,0
DA:371,0
DA:376,0
DA:377,0
DA:378,0
DA:379,0
DA:381,0
DA:384,0
DA:386,0
DA:387,0
DA:390,0
DA:391,0
DA:392,0
DA:395,0
DA:398,0
DA:399,0
DA:402,0
DA:403,0
DA:404,0
DA:405,0
DA:407,0
DA:409,0
DA:420,0
DA:431,0
DA:434,0
DA:436,0
DA:437,0
DA:438,0
DA:439,0
DA:440,0
DA:443,0
DA:444,0
DA:445,0
DA:449,0
DA:451,0
DA:454,0
DA:455,0
DA:456,0
DA:458,0
DA:459,0
DA:460,0
DA:461,0
DA:462,0
DA:464,0
DA:469,0
DA:470,0
DA:473,0
DA:475,0
DA:476,0
DA:478,0
DA:479,0
DA:480,0
DA:481,0
DA:482,0
DA:483,0
DA:484,0
DA:486,0
DA:487,0
DA:488,0
DA:489,0
DA:490,0
DA:492,0
DA:496,0
DA:497,0
DA:498,0
DA:501,0
DA:502,0
DA:503,0
DA:504,0
DA:505,0
DA:506,0
DA:507,0
DA:508,0
DA:511,0
DA:512,0
DA:513,0
DA:516,0
DA:518,0
DA:519,0
DA:520,0
DA:523,0
DA:527,0
DA:530,0
DA:532,0
DA:533,0
DA:534,0
DA:537,0
DA:538,0
DA:540,0
DA:541,0
DA:542,0
DA:543,0
DA:544,0
DA:549,0
DA:550,0
DA:554,0
DA:556,0
DA:557,0
DA:558,0
DA:561,0
DA:564,0
DA:568,0
DA:570,0
DA:572,0
DA:573,0
DA:574,0
DA:576,0
DA:577,0
DA:578,0
DA:579,0
DA:580,0
DA:581,0
DA:587,0
DA:588,0
DA:599,0
DA:600,0
DA:601,0
DA:602,0
DA:603,0
DA:606,0
DA:609,0
DA:610,0
DA:611,0
DA:612,0
DA:613,0
DA:614,0
DA:617,0
DA:618,0
DA:619,0
DA:622,0
DA:625,0
DA:628,0
DA:629,0
DA:630,0
DA:632,0
DA:635,0
DA:637,0
DA:638,0
BRF:0
BRH:0
LF:318
LH:0
end_of_record
SF:/Users/didi/Desktop/vm/vm-core/src/gc/roots.rs
FN:32,_RNvMNtNtCsbkbnPoCG8ZW_7vm_core2gc5rootsNtB2_7RootSet3add
FN:59,_RNvMNtNtCsbkbnPoCG8ZW_7vm_core2gc5rootsNtB2_7RootSet3len
FN:25,_RNvMNtNtCsbkbnPoCG8ZW_7vm_core2gc5rootsNtB2_7RootSet3new
FN:44,_RNvMNtNtCsbkbnPoCG8ZW_7vm_core2gc5rootsNtB2_7RootSet5clear
FN:39,_RNvMNtNtCsbkbnPoCG8ZW_7vm_core2gc5rootsNtB2_7RootSet6remove
FN:49,_RNvMNtNtCsbkbnPoCG8ZW_7vm_core2gc5rootsNtB2_7RootSet7get_all
FN:54,_RNvMNtNtCsbkbnPoCG8ZW_7vm_core2gc5rootsNtB2_7RootSet8contains
FN:64,_RNvMNtNtCsbkbnPoCG8ZW_7vm_core2gc5rootsNtB2_7RootSet8is_empty
FN:94,_RNvMs0_NtNtCsbkbnPoCG8ZW_7vm_core2gc5rootsNtB5_16StackRootScanner18update_stack_range
FN:85,_RNvMs0_NtNtCsbkbnPoCG8ZW_7vm_core2gc5rootsNtB5_16StackRootScanner3new
FN:131,_RNvMs3_NtNtCsbkbnPoCG8ZW_7vm_core2gc5rootsNtB5_17GlobalRootScanner10add_global
FN:138,_RNvMs3_NtNtCsbkbnPoCG8ZW_7vm_core2gc5rootsNtB5_17GlobalRootScanner13remove_global
FN:124,_RNvMs3_NtNtCsbkbnPoCG8ZW_7vm_core2gc5rootsNtB5_17GlobalRootScanner3new
FN:170,_RNvMs6_NtNtCsbkbnPoCG8ZW_7vm_core2gc5rootsNtB5_20CompositeRootScanner11add_scanner
FN:163,_RNvMs6_NtNtCsbkbnPoCG8ZW_7vm_core2gc5rootsNtB5_20CompositeRootScanner3new
FN:101,_RNvXs1_NtNtCsbkbnPoCG8ZW_7vm_core2gc5rootsNtB5_16StackRootScannerNtB5_11RootScanner10scan_roots
FN:111,_RNvXs2_NtNtCsbkbnPoCG8ZW_7vm_core2gc5rootsNtB5_16StackRootScannerNtNtCskzPJi2J8k3N_4core7default7Default7default
FN:144,_RNvXs4_NtNtCsbkbnPoCG8ZW_7vm_core2gc5rootsNtB5_17GlobalRootScannerNtB5_11RootScanner10scan_roots
FN:150,_RNvXs5_NtNtCsbkbnPoCG8ZW_7vm_core2gc5rootsNtB5_17GlobalRootScannerNtNtCskzPJi2J8k3N_4core7default7Default7default
FN:176,_RNvXs7_NtNtCsbkbnPoCG8ZW_7vm_core2gc5rootsNtB5_20CompositeRootScannerNtB5_11RootScanner10scan_roots
FN:186,_RNvXs8_NtNtCsbkbnPoCG8ZW_7vm_core2gc5rootsNtB5_20CompositeRootScannerNtNtCskzPJi2J8k3N_4core7default7Default7default
FN:70,_RNvXs_NtNtCsbkbnPoCG8ZW_7vm_core2gc5rootsNtB4_7RootSetNtNtCskzPJi2J8k3N_4core7default7Default7default
FNDA:0,_RNvMNtNtCsbkbnPoCG8ZW_7vm_core2gc5rootsNtB2_7RootSet3add
FNDA:0,_RNvMNtNtCsbkbnPoCG8ZW_7vm_core2gc5rootsNtB2_7RootSet3len
FNDA:0,_RNvMNtNtCsbkbnPoCG8ZW_7vm_core2gc5rootsNtB2_7RootSet3new
FNDA:0,_RNvMNtNtCsbkbnPoCG8ZW_7vm_core2gc5rootsNtB2_7RootSet5clear
FNDA:0,_RNvMNtNtCsbkbnPoCG8ZW_7vm_core2gc5rootsNtB2_7RootSet6remove
FNDA:0,_RNvMNtNtCsbkbnPoCG8ZW_7vm_core2gc5rootsNtB2_7RootSet7get_all
FNDA:0,_RNvMNtNtCsbkbnPoCG8ZW_7vm_core2gc5rootsNtB2_7RootSet8contains
FNDA:0,_RNvMNtNtCsbkbnPoCG8ZW_7vm_core2gc5rootsNtB2_7RootSet8is_empty
FNDA:0,_RNvMs0_NtNtCsbkbnPoCG8ZW_7vm_core2gc5rootsNtB5_16StackRootScanner18update_stack_range
FNDA:0,_RNvMs0_NtNtCsbkbnPoCG8ZW_7vm_core2gc5rootsNtB5_16StackRootScanner3new
FNDA:0,_RNvMs3_NtNtCsbkbnPoCG8ZW_7vm_core2gc5rootsNtB5_17GlobalRootScanner10add_global
FNDA:0,_RNvMs3_NtNtCsbkbnPoCG8ZW_7vm_core2gc5rootsNtB5_17GlobalRootScanner13remove_global
FNDA:0,_RNvMs3_NtNtCsbkbnPoCG8ZW_7vm_core2gc5rootsNtB5_17GlobalRootScanner3new
FNDA:0,_RNvMs6_NtNtCsbkbnPoCG8ZW_7vm_core2gc5rootsNtB5_20CompositeRootScanner11add_scanner
FNDA:0,_RNvMs6_NtNtCsbkbnPoCG8ZW_7vm_core2gc5rootsNtB5_20CompositeRootScanner3new
FNDA:0,_RNvXs1_NtNtCsbkbnPoCG8ZW_7vm_core2gc5rootsNtB5_16StackRootScannerNtB5_11RootScanner10scan_roots
FNDA:0,_RNvXs2_NtNtCsbkbnPoCG8ZW_7vm_core2gc5rootsNtB5_16StackRootScannerNtNtCskzPJi2J8k3N_4core7default7Default7default
FNDA:0,_RNvXs4_NtNtCsbkbnPoCG8ZW_7vm_core2gc5rootsNtB5_17GlobalRootScannerNtB5_11RootScanner10scan_roots
FNDA:0,_RNvXs5_NtNtCsbkbnPoCG8ZW_7vm_core2gc5rootsNtB5_17GlobalRootScannerNtNtCskzPJi2J8k3N_4core7default7Default7default
FNDA:0,_RNvXs7_NtNtCsbkbnPoCG8ZW_7vm_core2gc5rootsNtB5_20CompositeRootScannerNtB5_11RootScanner10scan_roots
FNDA:0,_RNvXs8_NtNtCsbkbnPoCG8ZW_7vm_core2gc5rootsNtB5_20CompositeRootScannerNtNtCskzPJi2J8k3N_4core7default7Default7default
FNDA:0,_RNvXs_NtNtCsbkbnPoCG8ZW_7vm_core2gc5rootsNtB4_7RootSetNtNtCskzPJi2J8k3N_4core7default7Default7default
FNF:22
FNH:0
DA:25,0
DA:26,0
DA:27,0
DA:28,0
DA:29,0
DA:32,0
DA:33,0
DA:34,0
DA:35,0
DA:36,0
DA:39,0
DA:40,0
DA:41,0
DA:44,0
DA:45,0
DA:46,0
DA:49,0
DA:50,0
DA:51,0
DA:54,0
DA:55,0
DA:56,0
DA:59,0
DA:60,0
DA:61,0
DA:64,0
DA:65,0
DA:66,0
DA:70,0
DA:71,0
DA:72,0
DA:85,0
DA:86,0
DA:87,0
DA:88,0
DA:89,0
DA:90,0
DA:91,0
DA:94,0
DA:95,0
DA:96,0
DA:97,0
DA:101,0
DA:106,0
DA:107,0
DA:111,0
DA:112,0
DA:113,0
DA:124,0
DA:125,0
DA:126,0
DA:127,0
DA:128,0
DA:131,0
DA:132,0
DA:133,0
DA:134,0
DA:135,0
DA:138,0
DA:139,0
DA:140,0
DA:144,0
DA:145,0
DA:146,0
DA:150,0
DA:151,0
DA:152,0
DA:163,0
DA:164,0
DA:165,0
DA:166,0
DA:167,0
DA:170,0
DA:171,0
DA:172,0
DA:176,0
DA:177,0
DA:178,0
DA:179,0
DA:180,0
DA:181,0
DA:182,0
DA:186,0
DA:187,0
DA:188,0
BRF:0
BRH:0
LF:85
LH:0
end_of_record
SF:/Users/didi/Desktop/vm/vm-core/src/gc/safepoint.rs
FN:123,_RNCNvMs_NtNtCsbkbnPoCG8ZW_7vm_core2gc9safepointNtB6_16SafepointManager13with_defaults0Ba_
FN:86,_RNvMNtNtCsbkbnPoCG8ZW_7vm_core2gc9safepointNtB2_14SafepointStats10wait_count
FN:91,_RNvMNtNtCsbkbnPoCG8ZW_7vm_core2gc9safepointNtB2_14SafepointStats11avg_wait_us
FN:76,_RNvMNtNtCsbkbnPoCG8ZW_7vm_core2gc9safepointNtB2_14SafepointStats11check_count
FN:81,_RNvMNtNtCsbkbnPoCG8ZW_7vm_core2gc9safepointNtB2_14SafepointStats12gc_triggered
FN:259,_RNvMs0_NtNtCsbkbnPoCG8ZW_7vm_core2gc9safepointNtB5_9Safepoint12with_manager
FN:315,_RNvMs0_NtNtCsbkbnPoCG8ZW_7vm_core2gc9safepointNtB5_9Safepoint19set_check_threshold
FN:249,_RNvMs0_NtNtCsbkbnPoCG8ZW_7vm_core2gc9safepointNtB5_9Safepoint3new
FN:310,_RNvMs0_NtNtCsbkbnPoCG8ZW_7vm_core2gc9safepointNtB5_9Safepoint5state
FN:329,_RNvMs1_NtNtCsbkbnPoCG8ZW_7vm_core2gc9safepointNtB5_13AutoSafepoint3new
FN:342,_RNvMs3_NtNtCsbkbnPoCG8ZW_7vm_core2gc9safepointNtB5_9Safepoint9auto_poll
FN:190,_RNvMs_NtNtCsbkbnPoCG8ZW_7vm_core2gc9safepointNtB4_16SafepointManager10request_gc
FN:214,_RNvMs_NtNtCsbkbnPoCG8ZW_7vm_core2gc9safepointNtB4_16SafepointManager11gc_complete
FN:225,_RNvMs_NtNtCsbkbnPoCG8ZW_7vm_core2gc9safepointNtB4_16SafepointManager11reset_stats
FN:120,_RNvMs_NtNtCsbkbnPoCG8ZW_7vm_core2gc9safepointNtB4_16SafepointManager13with_defaults
FN:152,_RNvMs_NtNtCsbkbnPoCG8ZW_7vm_core2gc9safepointNtB4_16SafepointManager14poll_safepoint
FN:197,_RNvMs_NtNtCsbkbnPoCG8ZW_7vm_core2gc9safepointNtB4_16SafepointManager18wait_for_safepoint
FN:107,_RNvMs_NtNtCsbkbnPoCG8ZW_7vm_core2gc9safepointNtB4_16SafepointManager3new
FN:220,_RNvMs_NtNtCsbkbnPoCG8ZW_7vm_core2gc9safepointNtB4_16SafepointManager9get_stats
FN:277,_RNvMs0_NtNtCsbkbnPoCG8ZW_7vm_core2gc9safepointNtB5_9Safepoint4poll
FN:133,_RNvMs_NtNtCsbkbnPoCG8ZW_7vm_core2gc9safepointNtB4_16SafepointManager11should_poll
FN:335,_RNvXs2_NtNtCsbkbnPoCG8ZW_7vm_core2gc9safepointNtB5_13AutoSafepointNtNtNtCskzPJi2J8k3N_4core3ops4drop4Drop4drop
FNDA:0,_RNCNvMs_NtNtCsbkbnPoCG8ZW_7vm_core2gc9safepointNtB6_16SafepointManager13with_defaults0Ba_
FNDA:0,_RNvMNtNtCsbkbnPoCG8ZW_7vm_core2gc9safepointNtB2_14SafepointStats10wait_count
FNDA:0,_RNvMNtNtCsbkbnPoCG8ZW_7vm_core2gc9safepointNtB2_14SafepointStats11avg_wait_us
FNDA:0,_RNvMNtNtCsbkbnPoCG8ZW_7vm_core2gc9safepointNtB2_14SafepointStats11check_count
FNDA:0,_RNvMNtNtCsbkbnPoCG8ZW_7vm_core2gc9safepointNtB2_14SafepointStats12gc_triggered
FNDA:0,_RNvMs0_NtNtCsbkbnPoCG8ZW_7vm_core2gc9safepointNtB5_9Safepoint12with_manager
FNDA:0,_RNvMs0_NtNtCsbkbnPoCG8ZW_7vm_core2gc9safepointNtB5_9Safepoint19set_check_threshold
FNDA:0,_RNvMs0_NtNtCsbkbnPoCG8ZW_7vm_core2gc9safepointNtB5_9Safepoint3new
FNDA:0,_RNvMs0_NtNtCsbkbnPoCG8ZW_7vm_core2gc9safepointNtB5_9Safepoint5state
FNDA:0,_RNvMs1_NtNtCsbkbnPoCG8ZW_7vm_core2gc9safepointNtB5_13AutoSafepoint3new
FNDA:0,_RNvMs3_NtNtCsbkbnPoCG8ZW_7vm_core2gc9safepointNtB5_9Safepoint9auto_poll
FNDA:0,_RNvMs_NtNtCsbkbnPoCG8ZW_7vm_core2gc9safepointNtB4_16SafepointManager10request_gc
FNDA:0,_RNvMs_NtNtCsbkbnPoCG8ZW_7vm_core2gc9safepointNtB4_16SafepointManager11gc_complete
FNDA:0,_RNvMs_NtNtCsbkbnPoCG8ZW_7vm_core2gc9safepointNtB4_16SafepointManager11reset_stats
FNDA:0,_RNvMs_NtNtCsbkbnPoCG8ZW_7vm_core2gc9safepointNtB4_16SafepointManager13with_defaults
FNDA:0,_RNvMs_NtNtCsbkbnPoCG8ZW_7vm_core2gc9safepointNtB4_16SafepointManager14poll_safepoint
FNDA:0,_RNvMs_NtNtCsbkbnPoCG8ZW_7vm_core2gc9safepointNtB4_16SafepointManager18wait_for_safepoint
FNDA:0,_RNvMs_NtNtCsbkbnPoCG8ZW_7vm_core2gc9safepointNtB4_16SafepointManager3new
FNDA:0,_RNvMs_NtNtCsbkbnPoCG8ZW_7vm_core2gc9safepointNtB4_16SafepointManager9get_stats
FNDA:0,_RNvMs0_NtNtCsbkbnPoCG8ZW_7vm_core2gc9safepointNtB5_9Safepoint4poll
FNDA:0,_RNvMs_NtNtCsbkbnPoCG8ZW_7vm_core2gc9safepointNtB4_16SafepointManager11should_poll
FNDA:0,_RNvXs2_NtNtCsbkbnPoCG8ZW_7vm_core2gc9safepointNtB5_13AutoSafepointNtNtNtCskzPJi2J8k3N_4core3ops4drop4Drop4drop
FNF:22
FNH:0
DA:76,0
DA:77,0
DA:78,0
DA:81,0
DA:82,0
DA:83,0
DA:86,0
DA:87,0
DA:88,0
DA:91,0
DA:92,0
DA:93,0
DA:94,0
DA:95,0
DA:96,0
DA:97,0
DA:98,0
DA:107,0
DA:108,0
DA:109,0
DA:110,0
DA:111,0
DA:112,0
DA:113,0
DA:114,0
DA:115,0
DA:116,0
DA:117,0
DA:120,0
DA:121,0
DA:122,0
DA:123,0
DA:124,0
DA:125,0
DA:127,0
DA:133,0
DA:135,0
DA:136,0
DA:138,0
DA:139,0
DA:140,0
DA:143,0
DA:146,0
DA:147,0
DA:152,0
DA:154,0
DA:157,0
DA:158,0
DA:159,0
DA:162,0
DA:165,0
DA:166,0
DA:167,0
DA:168,0
DA:171,0
DA:172,0
DA:173,0
DA:174,0
DA:175,0
DA:178,0
DA:179,0
DA:180,0
DA:181,0
DA:184,0
DA:185,0
DA:190,0
DA:191,0
DA:192,0
DA:197,0
DA:198,0
DA:199,0
DA:201,0
DA:202,0
DA:203,0
DA:204,0
DA:205,0
DA:208,0
DA:209,0
DA:214,0
DA:215,0
DA:216,0
DA:217,0
DA:220,0
DA:221,0
DA:222,0
DA:225,0
DA:226,0
DA:227,0
DA:228,0
DA:229,0
DA:230,0
DA:249,0
DA:250,0
DA:251,0
DA:252,0
DA:253,0
DA:254,0
DA:255,0
DA:256,0
DA:259,0
DA:260,0
DA:261,0
DA:262,0
DA:263,0
DA:264,0
DA:265,0
DA:266,0
DA:267,0
DA:268,0
DA:277,0
DA:278,0
DA:281,0
DA:282,0
DA:283,0
DA:286,0
DA:287,0
DA:288,0
DA:289,0
DA:290,0
DA:291,0
DA:292,0
DA:293,0
DA:294,0
DA:295,0
DA:310,0
DA:311,0
DA:312,0
DA:315,0
DA:316,0
DA:317,0
DA:329,0
DA:330,0
DA:331,0
DA:335,0
DA:336,0
DA:337,0
DA:342,0
DA:343,0
DA:344,0
BRF:0
BRH:0
LF:140
LH:0
end_of_record
SF:/Users/didi/Desktop/vm/vm-core/src/gdb.rs
FN:194,_RNCNvMs0_NtCsbkbnPoCG8ZW_7vm_core3gdbNtB7_10GdbSession14handle_commands0_0B9_
FN:279,_RNCNvMs0_NtCsbkbnPoCG8ZW_7vm_core3gdbNtB7_10GdbSession16format_registers0B9_
FN:249,_RNCNvMs0_NtCsbkbnPoCG8ZW_7vm_core3gdbNtB7_10GdbSession14handle_commands4_0B9_
FNDA:0,_RNCNvMs0_NtCsbkbnPoCG8ZW_7vm_core3gdbNtB7_10GdbSession14handle_commands0_0B9_
FNDA:0,_RNCNvMs0_NtCsbkbnPoCG8ZW_7vm_core3gdbNtB7_10GdbSession16format_registers0B9_
FNDA:0,_RNCNvMs0_NtCsbkbnPoCG8ZW_7vm_core3gdbNtB7_10GdbSession14handle_commands4_0B9_
FNF:3
FNH:0
DA:194,0
DA:249,0
DA:279,0
BRF:0
BRH:0
LF:3
LH:0
end_of_record
SF:/Users/didi/Desktop/vm/vm-core/src/lib.rs
FN:148,_RNvMCsbkbnPoCG8ZW_7vm_coreNtB2_9GuestAddr12wrapping_add
FN:161,_RNvMCsbkbnPoCG8ZW_7vm_coreNtB2_9GuestAddr12wrapping_sub
FN:169,_RNvMCsbkbnPoCG8ZW_7vm_coreNtB2_9GuestAddr17wrapping_add_addr
FN:177,_RNvMCsbkbnPoCG8ZW_7vm_coreNtB2_9GuestAddr17wrapping_sub_addr
FN:193,_RNvMCsbkbnPoCG8ZW_7vm_coreNtB2_9GuestAddr5value
FN:185,_RNvMCsbkbnPoCG8ZW_7vm_coreNtB2_9GuestAddr6as_i64
FN:357,_RNvMs4_CsbkbnPoCG8ZW_7vm_coreNtB5_13GuestPhysAddr13to_guest_addr
FN:493,_RNvMse_CsbkbnPoCG8ZW_7vm_coreNtB5_9GuestArch4name
FN:325,_RNvXs0_CsbkbnPoCG8ZW_7vm_coreNtB5_9GuestAddrINtNtNtCskzPJi2J8k3N_4core3ops3bit6BitAndyE6bitand
FN:334,_RNvXs1_CsbkbnPoCG8ZW_7vm_coreRNtB5_9GuestAddrINtNtNtCskzPJi2J8k3N_4core3ops3bit6BitAndyE6bitand
FN:342,_RNvXs2_CsbkbnPoCG8ZW_7vm_coreNtB5_9GuestAddrINtNtNtCskzPJi2J8k3N_4core3ops5arith3RemyE3rem
FN:350,_RNvXs3_CsbkbnPoCG8ZW_7vm_coreNtB5_9GuestAddrNtNtNtCskzPJi2J8k3N_4core3ops5arith3Sub3sub
FN:363,_RNvXs5_CsbkbnPoCG8ZW_7vm_coreNtB5_9GuestAddrINtNtCskzPJi2J8k3N_4core7convert4FromNtB5_13GuestPhysAddrE4from
FN:369,_RNvXs6_CsbkbnPoCG8ZW_7vm_coreNtB5_13GuestPhysAddrINtNtCskzPJi2J8k3N_4core7convert4FromNtB5_9GuestAddrE4from
FN:375,_RNvXs7_CsbkbnPoCG8ZW_7vm_coreNtB5_9GuestAddrNtNtCskzPJi2J8k3N_4core3fmt8LowerHex3fmt
FN:383,_RNvXs8_CsbkbnPoCG8ZW_7vm_coreNtB5_9GuestAddrINtNtNtCskzPJi2J8k3N_4core3ops5arith3AddyE3add
FN:389,_RNvXs9_CsbkbnPoCG8ZW_7vm_coreNtB5_9GuestAddrINtNtNtCskzPJi2J8k3N_4core3ops5arith9AddAssignyE10add_assign
FN:199,_RNvXs_CsbkbnPoCG8ZW_7vm_coreNtB4_9GuestAddrNtNtCskzPJi2J8k3N_4core3fmt7Display3fmt
FN:397,_RNvXsa_CsbkbnPoCG8ZW_7vm_coreNtB5_9GuestAddrINtNtNtCskzPJi2J8k3N_4core3ops3bit3ShrmE3shr
FN:432,_RNvXsb_CsbkbnPoCG8ZW_7vm_coreNtB5_13GuestPhysAddrINtNtNtCskzPJi2J8k3N_4core3ops5arith3AddyE3add
FN:438,_RNvXsc_CsbkbnPoCG8ZW_7vm_coreNtB5_13GuestPhysAddrINtNtNtCskzPJi2J8k3N_4core3ops5arith9AddAssignyE10add_assign
FN:446,_RNvXsd_CsbkbnPoCG8ZW_7vm_coreNtB5_13GuestPhysAddrINtNtNtCskzPJi2J8k3N_4core3ops3bit3ShryE3shr
FN:504,_RNvXsf_CsbkbnPoCG8ZW_7vm_coreNtB5_9GuestArchNtNtCskzPJi2J8k3N_4core3fmt7Display3fmt
FN:560,_RNvXsg_CsbkbnPoCG8ZW_7vm_coreNtB5_8VmConfigNtNtCskzPJi2J8k3N_4core7default7Default7default
FNDA:0,_RNvMCsbkbnPoCG8ZW_7vm_coreNtB2_9GuestAddr12wrapping_add
FNDA:0,_RNvMCsbkbnPoCG8ZW_7vm_coreNtB2_9GuestAddr12wrapping_sub
FNDA:0,_RNvMCsbkbnPoCG8ZW_7vm_coreNtB2_9GuestAddr17wrapping_add_addr
FNDA:0,_RNvMCsbkbnPoCG8ZW_7vm_coreNtB2_9GuestAddr17wrapping_sub_addr
FNDA:0,_RNvMCsbkbnPoCG8ZW_7vm_coreNtB2_9GuestAddr5value
FNDA:0,_RNvMCsbkbnPoCG8ZW_7vm_coreNtB2_9GuestAddr6as_i64
FNDA:0,_RNvMs4_CsbkbnPoCG8ZW_7vm_coreNtB5_13GuestPhysAddr13to_guest_addr
FNDA:0,_RNvMse_CsbkbnPoCG8ZW_7vm_coreNtB5_9GuestArch4name
FNDA:0,_RNvXs0_CsbkbnPoCG8ZW_7vm_coreNtB5_9GuestAddrINtNtNtCskzPJi2J8k3N_4core3ops3bit6BitAndyE6bitand
FNDA:0,_RNvXs1_CsbkbnPoCG8ZW_7vm_coreRNtB5_9GuestAddrINtNtNtCskzPJi2J8k3N_4core3ops3bit6BitAndyE6bitand
FNDA:0,_RNvXs2_CsbkbnPoCG8ZW_7vm_coreNtB5_9GuestAddrINtNtNtCskzPJi2J8k3N_4core3ops5arith3RemyE3rem
FNDA:0,_RNvXs3_CsbkbnPoCG8ZW_7vm_coreNtB5_9GuestAddrNtNtNtCskzPJi2J8k3N_4core3ops5arith3Sub3sub
FNDA:0,_RNvXs5_CsbkbnPoCG8ZW_7vm_coreNtB5_9GuestAddrINtNtCskzPJi2J8k3N_4core7convert4FromNtB5_13GuestPhysAddrE4from
FNDA:0,_RNvXs6_CsbkbnPoCG8ZW_7vm_coreNtB5_13GuestPhysAddrINtNtCskzPJi2J8k3N_4core7convert4FromNtB5_9GuestAddrE4from
FNDA:0,_RNvXs7_CsbkbnPoCG8ZW_7vm_coreNtB5_9GuestAddrNtNtCskzPJi2J8k3N_4core3fmt8LowerHex3fmt
FNDA:0,_RNvXs8_CsbkbnPoCG8ZW_7vm_coreNtB5_9GuestAddrINtNtNtCskzPJi2J8k3N_4core3ops5arith3AddyE3add
FNDA:0,_RNvXs9_CsbkbnPoCG8ZW_7vm_coreNtB5_9GuestAddrINtNtNtCskzPJi2J8k3N_4core3ops5arith9AddAssignyE10add_assign
FNDA:0,_RNvXs_CsbkbnPoCG8ZW_7vm_coreNtB4_9GuestAddrNtNtCskzPJi2J8k3N_4core3fmt7Display3fmt
FNDA:0,_RNvXsa_CsbkbnPoCG8ZW_7vm_coreNtB5_9GuestAddrINtNtNtCskzPJi2J8k3N_4core3ops3bit3ShrmE3shr
FNDA:0,_RNvXsb_CsbkbnPoCG8ZW_7vm_coreNtB5_13GuestPhysAddrINtNtNtCskzPJi2J8k3N_4core3ops5arith3AddyE3add
FNDA:0,_RNvXsc_CsbkbnPoCG8ZW_7vm_coreNtB5_13GuestPhysAddrINtNtNtCskzPJi2J8k3N_4core3ops5arith9AddAssignyE10add_assign
FNDA:0,_RNvXsd_CsbkbnPoCG8ZW_7vm_coreNtB5_13GuestPhysAddrINtNtNtCskzPJi2J8k3N_4core3ops3bit3ShryE3shr
FNDA:0,_RNvXsf_CsbkbnPoCG8ZW_7vm_coreNtB5_9GuestArchNtNtCskzPJi2J8k3N_4core3fmt7Display3fmt
FNDA:0,_RNvXsg_CsbkbnPoCG8ZW_7vm_coreNtB5_8VmConfigNtNtCskzPJi2J8k3N_4core7default7Default7default
FNF:24
FNH:0
DA:148,0
DA:149,0
DA:150,0
DA:161,0
DA:162,0
DA:163,0
DA:169,0
DA:170,0
DA:171,0
DA:177,0
DA:178,0
DA:179,0
DA:185,0
DA:186,0
DA:187,0
DA:193,0
DA:194,0
DA:195,0
DA:199,0
DA:200,0
DA:201,0
DA:325,0
DA:326,0
DA:327,0
DA:334,0
DA:335,0
DA:336,0
DA:342,0
DA:343,0
DA:344,0
DA:350,0
DA:351,0
DA:352,0
DA:357,0
DA:358,0
DA:359,0
DA:363,0
DA:364,0
DA:365,0
DA:369,0
DA:370,0
DA:371,0
DA:375,0
DA:376,0
DA:377,0
DA:383,0
DA:384,0
DA:385,0
DA:389,0
DA:390,0
DA:391,0
DA:397,0
DA:398,0
DA:399,0
DA:432,0
DA:433,0
DA:434,0
DA:438,0
DA:439,0
DA:440,0
DA:446,0
DA:447,0
DA:448,0
DA:493,0
DA:494,0
DA:495,0
DA:496,0
DA:497,0
DA:498,0
DA:500,0
DA:504,0
DA:505,0
DA:506,0
DA:560,0
DA:561,0
DA:562,0
DA:563,0
DA:564,0
DA:565,0
DA:566,0
DA:567,0
DA:568,0
DA:569,0
BRF:0
BRH:0
LF:83
LH:0
end_of_record
SF:/Users/didi/Desktop/vm/vm-core/src/optimization/auto_optimizer.rs
FN:265,_RNCNvMs0_NtNtCsbkbnPoCG8ZW_7vm_core12optimization14auto_optimizerNtB7_13AutoOptimizer32analyze_workload_characteristics0Bb_
FN:268,_RNCNvMs0_NtNtCsbkbnPoCG8ZW_7vm_core12optimization14auto_optimizerNtB7_13AutoOptimizer32analyze_workload_characteristicss_0Bb_
FN:487,_RNCNvMs0_NtNtCsbkbnPoCG8ZW_7vm_core12optimization14auto_optimizerNtB7_13AutoOptimizer30improvement_since_optimization0Bb_
FNDA:0,_RNCNvMs0_NtNtCsbkbnPoCG8ZW_7vm_core12optimization14auto_optimizerNtB7_13AutoOptimizer32analyze_workload_characteristics0Bb_
FNDA:0,_RNCNvMs0_NtNtCsbkbnPoCG8ZW_7vm_core12optimization14auto_optimizerNtB7_13AutoOptimizer32analyze_workload_characteristicss_0Bb_
FNDA:0,_RNCNvMs0_NtNtCsbkbnPoCG8ZW_7vm_core12optimization14auto_optimizerNtB7_13AutoOptimizer30improvement_since_optimization0Bb_
FNF:3
FNH:0
DA:265,0
DA:268,0
DA:487,0
BRF:0
BRH:0
LF:3
LH:0
end_of_record
SF:/Users/didi/Desktop/vm/vm-core/src/runtime/gc.rs
FN:24,_RNvXNtNtCsbkbnPoCG8ZW_7vm_core7runtime2gcNtNtB6_5error7VmErrorINtNtCskzPJi2J8k3N_4core7convert4FromNtNtCs4gdf64sH1Y3_5vm_gc5error7GcErrorE4from
FNDA:0,_RNvXNtNtCsbkbnPoCG8ZW_7vm_core7runtime2gcNtNtB6_5error7VmErrorINtNtCskzPJi2J8k3N_4core7convert4FromNtNtCs4gdf64sH1Y3_5vm_gc5error7GcErrorE4from
FNF:1
FNH:0
DA:24,0
DA:25,0
DA:26,0
DA:27,0
DA:28,0
DA:29,0
BRF:0
BRH:0
LF:6
LH:0
end_of_record
SF:/Users/didi/Desktop/vm/vm-core/src/runtime/profiler.rs
FN:287,_RNCNvMs6_NtNtCsbkbnPoCG8ZW_7vm_core7runtime8profilerNtB7_8Profiler19generate_flamegraph0Bb_
FN:409,_RNCNvMs8_NtNtCsbkbnPoCG8ZW_7vm_core7runtime8profilerNtB7_14FlamegraphData14color_for_name0Bb_
FN:435,_RNCNvMs9_NtNtCsbkbnPoCG8ZW_7vm_core7runtime8profilerNtB7_12TimelineData7to_json0Bb_
FN:455,_RNCNvMsa_NtNtCsbkbnPoCG8ZW_7vm_core7runtime8profilerNtB7_18ThreadSafeProfiler10lock_inner0Bb_
FN:179,_RNvMs5_NtNtCsbkbnPoCG8ZW_7vm_core7runtime8profilerNtB5_10StackFrame3new
FN:187,_RNvMs5_NtNtCsbkbnPoCG8ZW_7vm_core7runtime8profilerNtB5_10StackFrame8duration
FN:263,_RNvMs6_NtNtCsbkbnPoCG8ZW_7vm_core7runtime8profilerNtB5_8Profiler12add_metadata
FN:307,_RNvMs6_NtNtCsbkbnPoCG8ZW_7vm_core7runtime8profilerNtB5_8Profiler17generate_timeline
FN:280,_RNvMs6_NtNtCsbkbnPoCG8ZW_7vm_core7runtime8profilerNtB5_8Profiler19generate_flamegraph
FN:210,_RNvMs6_NtNtCsbkbnPoCG8ZW_7vm_core7runtime8profilerNtB5_8Profiler3new
FN:235,_RNvMs6_NtNtCsbkbnPoCG8ZW_7vm_core7runtime8profilerNtB5_8Profiler4exit
FN:227,_RNvMs6_NtNtCsbkbnPoCG8ZW_7vm_core7runtime8profilerNtB5_8Profiler5enter
FN:275,_RNvMs6_NtNtCsbkbnPoCG8ZW_7vm_core7runtime8profilerNtB5_8Profiler5stats
FN:222,_RNvMs6_NtNtCsbkbnPoCG8ZW_7vm_core7runtime8profilerNtB5_8Profiler6config
FN:270,_RNvMs6_NtNtCsbkbnPoCG8ZW_7vm_core7runtime8profilerNtB5_8Profiler7samples
FN:347,_RNvMs7_NtNtCsbkbnPoCG8ZW_7vm_core7runtime8profilerNtB5_14FlamegraphNode3new
FN:375,_RNvMs8_NtNtCsbkbnPoCG8ZW_7vm_core7runtime8profilerNtB5_14FlamegraphData11render_node
FN:406,_RNvMs8_NtNtCsbkbnPoCG8ZW_7vm_core7runtime8profilerNtB5_14FlamegraphData14color_for_name
FN:364,_RNvMs8_NtNtCsbkbnPoCG8ZW_7vm_core7runtime8profilerNtB5_14FlamegraphData6to_svg
FN:434,_RNvMs9_NtNtCsbkbnPoCG8ZW_7vm_core7runtime8profilerNtB5_12TimelineData7to_json
FN:452,_RNvMsa_NtNtCsbkbnPoCG8ZW_7vm_core7runtime8profilerNtB5_18ThreadSafeProfiler10lock_inner
FN:488,_RNvMsa_NtNtCsbkbnPoCG8ZW_7vm_core7runtime8profilerNtB5_18ThreadSafeProfiler17generate_timeline
FN:479,_RNvMsa_NtNtCsbkbnPoCG8ZW_7vm_core7runtime8profilerNtB5_18ThreadSafeProfiler19generate_flamegraph
FN:445,_RNvMsa_NtNtCsbkbnPoCG8ZW_7vm_core7runtime8profilerNtB5_18ThreadSafeProfiler3new
FN:465,_RNvMsa_NtNtCsbkbnPoCG8ZW_7vm_core7runtime8profilerNtB5_18ThreadSafeProfiler4exit
FN:458,_RNvMsa_NtNtCsbkbnPoCG8ZW_7vm_core7runtime8profilerNtB5_18ThreadSafeProfiler5enter
FN:472,_RNvMsa_NtNtCsbkbnPoCG8ZW_7vm_core7runtime8profilerNtB5_18ThreadSafeProfiler7samples
FN:505,_RNvMsb_NtNtCsbkbnPoCG8ZW_7vm_core7runtime8profilerNtB5_13ProfilerScope3new
FN:519,_RNvMsd_NtNtCsbkbnPoCG8ZW_7vm_core7runtime8profilerNtB5_8Profiler5scope
FN:23,_RNvXNtNtCsbkbnPoCG8ZW_7vm_core7runtime8profilerNtB2_13ProfilerErrorNtNtCskzPJi2J8k3N_4core3fmt7Display3fmt
FN:128,_RNvXNvXs4_NtNtCsbkbnPoCG8ZW_7vm_core7runtime8profilerNtB8_10StackFrameNtNtCslSF5H0hihSs_10serde_core2de11Deserialize11deserializeNtB2_17StackFrameVisitorNtB18_7Visitor9expecting
FN:41,_RNvXs1_NtNtCsbkbnPoCG8ZW_7vm_core7runtime8profilerNtB5_13ProfilerErrorINtNtCskzPJi2J8k3N_4core7convert4FromNtNtCsgbG2B7dqOiJ_10serde_json5error5ErrorE4from
FN:62,_RNvXs2_NtNtCsbkbnPoCG8ZW_7vm_core7runtime8profilerNtB5_14ProfilerConfigNtNtCskzPJi2J8k3N_4core7default7Default7default
FN:512,_RNvXsc_NtNtCsbkbnPoCG8ZW_7vm_core7runtime8profilerNtB5_13ProfilerScopeNtNtNtCskzPJi2J8k3N_4core3ops4drop4Drop4drop
FNDA:0,_RNCNvMs6_NtNtCsbkbnPoCG8ZW_7vm_core7runtime8profilerNtB7_8Profiler19generate_flamegraph0Bb_
FNDA:0,_RNCNvMs8_NtNtCsbkbnPoCG8ZW_7vm_core7runtime8profilerNtB7_14FlamegraphData14color_for_name0Bb_
FNDA:0,_RNCNvMs9_NtNtCsbkbnPoCG8ZW_7vm_core7runtime8profilerNtB7_12TimelineData7to_json0Bb_
FNDA:0,_RNCNvMsa_NtNtCsbkbnPoCG8ZW_7vm_core7runtime8profilerNtB7_18ThreadSafeProfiler10lock_inner0Bb_
FNDA:0,_RNvMs5_NtNtCsbkbnPoCG8ZW_7vm_core7runtime8profilerNtB5_10StackFrame3new
FNDA:0,_RNvMs5_NtNtCsbkbnPoCG8ZW_7vm_core7runtime8profilerNtB5_10StackFrame8duration
FNDA:0,_RNvMs6_NtNtCsbkbnPoCG8ZW_7vm_core7runtime8profilerNtB5_8Profiler12add_metadata
FNDA:0,_RNvMs6_NtNtCsbkbnPoCG8ZW_7vm_core7runtime8profilerNtB5_8Profiler17generate_timeline
FNDA:0,_RNvMs6_NtNtCsbkbnPoCG8ZW_7vm_core7runtime8profilerNtB5_8Profiler19generate_flamegraph
FNDA:0,_RNvMs6_NtNtCsbkbnPoCG8ZW_7vm_core7runtime8profilerNtB5_8Profiler3new
FNDA:0,_RNvMs6_NtNtCsbkbnPoCG8ZW_7vm_core7runtime8profilerNtB5_8Profiler4exit
FNDA:0,_RNvMs6_NtNtCsbkbnPoCG8ZW_7vm_core7runtime8profilerNtB5_8Profiler5enter
FNDA:0,_RNvMs6_NtNtCsbkbnPoCG8ZW_7vm_core7runtime8profilerNtB5_8Profiler5stats
FNDA:0,_RNvMs6_NtNtCsbkbnPoCG8ZW_7vm_core7runtime8profilerNtB5_8Profiler6config
FNDA:0,_RNvMs6_NtNtCsbkbnPoCG8ZW_7vm_core7runtime8profilerNtB5_8Profiler7samples
FNDA:0,_RNvMs7_NtNtCsbkbnPoCG8ZW_7vm_core7runtime8profilerNtB5_14FlamegraphNode3new
FNDA:0,_RNvMs8_NtNtCsbkbnPoCG8ZW_7vm_core7runtime8profilerNtB5_14FlamegraphData11render_node
FNDA:0,_RNvMs8_NtNtCsbkbnPoCG8ZW_7vm_core7runtime8profilerNtB5_14FlamegraphData14color_for_name
FNDA:0,_RNvMs8_NtNtCsbkbnPoCG8ZW_7vm_core7runtime8profilerNtB5_14FlamegraphData6to_svg
FNDA:0,_RNvMs9_NtNtCsbkbnPoCG8ZW_7vm_core7runtime8profilerNtB5_12TimelineData7to_json
FNDA:0,_RNvMsa_NtNtCsbkbnPoCG8ZW_7vm_core7runtime8profilerNtB5_18ThreadSafeProfiler10lock_inner
FNDA:0,_RNvMsa_NtNtCsbkbnPoCG8ZW_7vm_core7runtime8profilerNtB5_18ThreadSafeProfiler17generate_timeline
FNDA:0,_RNvMsa_NtNtCsbkbnPoCG8ZW_7vm_core7runtime8profilerNtB5_18ThreadSafeProfiler19generate_flamegraph
FNDA:0,_RNvMsa_NtNtCsbkbnPoCG8ZW_7vm_core7runtime8profilerNtB5_18ThreadSafeProfiler3new
FNDA:0,_RNvMsa_NtNtCsbkbnPoCG8ZW_7vm_core7runtime8profilerNtB5_18ThreadSafeProfiler4exit
FNDA:0,_RNvMsa_NtNtCsbkbnPoCG8ZW_7vm_core7runtime8profilerNtB5_18ThreadSafeProfiler5enter
FNDA:0,_RNvMsa_NtNtCsbkbnPoCG8ZW_7vm_core7runtime8profilerNtB5_18ThreadSafeProfiler7samples
FNDA:0,_RNvMsb_NtNtCsbkbnPoCG8ZW_7vm_core7runtime8profilerNtB5_13ProfilerScope3new
FNDA:0,_RNvMsd_NtNtCsbkbnPoCG8ZW_7vm_core7runtime8profilerNtB5_8Profiler5scope
FNDA:0,_RNvXNtNtCsbkbnPoCG8ZW_7vm_core7runtime8profilerNtB2_13ProfilerErrorNtNtCskzPJi2J8k3N_4core3fmt7Display3fmt
FNDA:0,_RNvXNvXs4_NtNtCsbkbnPoCG8ZW_7vm_core7runtime8profilerNtB8_10StackFrameNtNtCslSF5H0hihSs_10serde_core2de11Deserialize11deserializeNtB2_17StackFrameVisitorNtB18_7Visitor9expecting
FNDA:0,_RNvXs1_NtNtCsbkbnPoCG8ZW_7vm_core7runtime8profilerNtB5_13ProfilerErrorINtNtCskzPJi2J8k3N_4core7convert4FromNtNtCsgbG2B7dqOiJ_10serde_json5error5ErrorE4from
FNDA:0,_RNvXs2_NtNtCsbkbnPoCG8ZW_7vm_core7runtime8profilerNtB5_14ProfilerConfigNtNtCskzPJi2J8k3N_4core7default7Default7default
FNDA:0,_RNvXsc_NtNtCsbkbnPoCG8ZW_7vm_core7runtime8profilerNtB5_13ProfilerScopeNtNtNtCskzPJi2J8k3N_4core3ops4drop4Drop4drop
FNF:34
FNH:0
DA:23,0
DA:24,0
DA:25,0
DA:26,0
DA:27,0
DA:29,0
DA:41,0
DA:42,0
DA:43,0
DA:62,0
DA:63,0
DA:64,0
DA:65,0
DA:66,0
DA:67,0
DA:68,0
DA:69,0
DA:70,0
DA:128,0
DA:129,0
DA:130,0
DA:179,0
DA:180,0
DA:181,0
DA:182,0
DA:183,0
DA:184,0
DA:185,0
DA:187,0
DA:188,0
DA:189,0
DA:190,0
DA:191,0
DA:192,0
DA:193,0
DA:195,0
DA:196,0
DA:210,0
DA:211,0
DA:212,0
DA:213,0
DA:214,0
DA:215,0
DA:216,0
DA:217,0
DA:218,0
DA:219,0
DA:222,0
DA:223,0
DA:224,0
DA:227,0
DA:228,0
DA:229,0
DA:230,0
DA:231,0
DA:232,0
DA:235,0
DA:236,0
DA:237,0
DA:238,0
DA:239,0
DA:241,0
DA:242,0
DA:243,0
DA:244,0
DA:245,0
DA:246,0
DA:247,0
DA:248,0
DA:249,0
DA:250,0
DA:252,0
DA:253,0
DA:254,0
DA:255,0
DA:257,0
DA:258,0
DA:259,0
DA:260,0
DA:263,0
DA:264,0
DA:265,0
DA:266,0
DA:267,0
DA:270,0
DA:271,0
DA:272,0
DA:275,0
DA:276,0
DA:277,0
DA:280,0
DA:281,0
DA:283,0
DA:284,0
DA:285,0
DA:287,0
DA:288,0
DA:289,0
DA:290,0
DA:291,0
DA:292,0
DA:293,0
DA:294,0
DA:295,0
DA:296,0
DA:297,0
DA:298,0
DA:300,0
DA:303,0
DA:304,0
DA:307,0
DA:308,0
DA:310,0
DA:311,0
DA:312,0
DA:313,0
DA:314,0
DA:315,0
DA:316,0
DA:317,0
DA:318,0
DA:319,0
DA:320,0
DA:321,0
DA:322,0
DA:323,0
DA:325,0
DA:326,0
DA:347,0
DA:348,0
DA:349,0
DA:350,0
DA:351,0
DA:352,0
DA:353,0
DA:364,0
DA:365,0
DA:366,0
DA:367,0
DA:369,0
DA:371,0
DA:372,0
DA:373,0
DA:375,0
DA:376,0
DA:377,0
DA:379,0
DA:380,0
DA:381,0
DA:382,0
DA:383,0
DA:385,0
DA:386,0
DA:387,0
DA:388,0
DA:389,0
DA:390,0
DA:391,0
DA:393,0
DA:394,0
DA:395,0
DA:397,0
DA:400,0
DA:401,0
DA:402,0
DA:403,0
DA:404,0
DA:406,0
DA:407,0
DA:408,0
DA:409,0
DA:410,0
DA:411,0
DA:412,0
DA:413,0
DA:414,0
DA:434,0
DA:435,0
DA:436,0
DA:445,0
DA:446,0
DA:447,0
DA:448,0
DA:449,0
DA:452,0
DA:453,0
DA:454,0
DA:455,0
DA:456,0
DA:458,0
DA:459,0
DA:460,0
DA:461,0
DA:463,0
DA:465,0
DA:466,0
DA:467,0
DA:468,0
DA:470,0
DA:472,0
DA:473,0
DA:474,0
DA:475,0
DA:477,0
DA:479,0
DA:480,0
DA:481,0
DA:482,0
DA:483,0
DA:484,0
DA:486,0
DA:488,0
DA:489,0
DA:490,0
DA:491,0
DA:492,0
DA:493,0
DA:495,0
DA:505,0
DA:506,0
DA:507,0
DA:508,0
DA:512,0
DA:513,0
DA:514,0
DA:519,0
DA:520,0
DA:521,0
BRF:0
BRH:0
LF:232
LH:0
end_of_record
SF:/Users/didi/Desktop/vm/vm-cross-arch-support/src/encoding.rs
FN:185,_RNvMs2_NtCseSBbdzXc5r3_21vm_cross_arch_support8encodingNtB5_15EncodingContext3new
FN:47,_RNvXs0_NtCseSBbdzXc5r3_21vm_cross_arch_support8encodingNtB5_5RegIdNtNtCskzPJi2J8k3N_4core3fmt7Display3fmt
FN:409,_RNvNtNtCseSBbdzXc5r3_21vm_cross_arch_support8encoding5testss_13test_align_up
FN:416,_RNvNtNtCseSBbdzXc5r3_21vm_cross_arch_support8encoding5testss_15test_is_aligned
FN:396,_RNvNtNtCseSBbdzXc5r3_21vm_cross_arch_support8encoding5testss_16test_insert_bits
FN:402,_RNvNtNtCseSBbdzXc5r3_21vm_cross_arch_support8encoding5testss_16test_sign_extend
FN:390,_RNvNtNtCseSBbdzXc5r3_21vm_cross_arch_support8encoding5testss_17test_extract_bits
FN:382,_RNvNtNtCseSBbdzXc5r3_21vm_cross_arch_support8encoding5testss_19test_immediate_fits
FN:423,_RNvNtNtCseSBbdzXc5r3_21vm_cross_arch_support8encoding5testss_42test_encoding_error_to_vm_error_conversion
FN:372,_RNvNtNtCseSBbdzXc5r3_21vm_cross_arch_support8encoding5utils10is_aligned
FN:336,_RNvNtNtCseSBbdzXc5r3_21vm_cross_arch_support8encoding5utils11insert_bits
FN:343,_RNvNtNtCseSBbdzXc5r3_21vm_cross_arch_support8encoding5utils11sign_extend
FN:329,_RNvNtNtCseSBbdzXc5r3_21vm_cross_arch_support8encoding5utils12extract_bits
FN:307,_RNvNtNtCseSBbdzXc5r3_21vm_cross_arch_support8encoding5utils14immediate_fits
FN:366,_RNvNtNtCseSBbdzXc5r3_21vm_cross_arch_support8encoding5utils8align_up
FN:70,_RNvXs1_NtCseSBbdzXc5r3_21vm_cross_arch_support8encodingNtNtCsbkbnPoCG8ZW_7vm_core5error7VmErrorINtNtCskzPJi2J8k3N_4core7convert4FromNtB5_13EncodingErrorE4from
FN:200,_RINvMs2_NtCseSBbdzXc5r3_21vm_cross_arch_support8encodingNtB6_15EncodingContext12with_featurepEB8_
FN:23,_RNvMNtCseSBbdzXc5r3_21vm_cross_arch_support8encodingNtB2_12Architecture14register_count
FN:205,_RNvMs2_NtCseSBbdzXc5r3_21vm_cross_arch_support8encodingNtB5_15EncodingContext11has_feature
FN:357,_RNvNtNtCseSBbdzXc5r3_21vm_cross_arch_support8encoding5utils18convert_endianness
FN:33,_RNvXs_NtCseSBbdzXc5r3_21vm_cross_arch_support8encodingNtB4_12ArchitectureNtNtCskzPJi2J8k3N_4core3fmt7Display3fmt
FNDA:1,_RNvMs2_NtCseSBbdzXc5r3_21vm_cross_arch_support8encodingNtB5_15EncodingContext3new
FNDA:7,_RNvXs0_NtCseSBbdzXc5r3_21vm_cross_arch_support8encodingNtB5_5RegIdNtNtCskzPJi2J8k3N_4core3fmt7Display3fmt
FNDA:1,_RNvNtNtCseSBbdzXc5r3_21vm_cross_arch_support8encoding5testss_13test_align_up
FNDA:1,_RNvNtNtCseSBbdzXc5r3_21vm_cross_arch_support8encoding5testss_15test_is_aligned
FNDA:1,_RNvNtNtCseSBbdzXc5r3_21vm_cross_arch_support8encoding5testss_16test_insert_bits
FNDA:1,_RNvNtNtCseSBbdzXc5r3_21vm_cross_arch_support8encoding5testss_16test_sign_extend
FNDA:1,_RNvNtNtCseSBbdzXc5r3_21vm_cross_arch_support8encoding5testss_17test_extract_bits
FNDA:1,_RNvNtNtCseSBbdzXc5r3_21vm_cross_arch_support8encoding5testss_19test_immediate_fits
FNDA:1,_RNvNtNtCseSBbdzXc5r3_21vm_cross_arch_support8encoding5testss_42test_encoding_error_to_vm_error_conversion
FNDA:3,_RNvNtNtCseSBbdzXc5r3_21vm_cross_arch_support8encoding5utils10is_aligned
FNDA:2,_RNvNtNtCseSBbdzXc5r3_21vm_cross_arch_support8encoding5utils11insert_bits
FNDA:2,_RNvNtNtCseSBbdzXc5r3_21vm_cross_arch_support8encoding5utils11sign_extend
FNDA:2,_RNvNtNtCseSBbdzXc5r3_21vm_cross_arch_support8encoding5utils12extract_bits
FNDA:4,_RNvNtNtCseSBbdzXc5r3_21vm_cross_arch_support8encoding5utils14immediate_fits
FNDA:3,_RNvNtNtCseSBbdzXc5r3_21vm_cross_arch_support8encoding5utils8align_up
FNDA:6,_RNvXs1_NtCseSBbdzXc5r3_21vm_cross_arch_support8encodingNtNtCsbkbnPoCG8ZW_7vm_core5error7VmErrorINtNtCskzPJi2J8k3N_4core7convert4FromNtB5_13EncodingErrorE4from
FNDA:0,_RINvMs2_NtCseSBbdzXc5r3_21vm_cross_arch_support8encodingNtB6_15EncodingContext12with_featurepEB8_
FNDA:0,_RNvMNtCseSBbdzXc5r3_21vm_cross_arch_support8encodingNtB2_12Architecture14register_count
FNDA:0,_RNvMs2_NtCseSBbdzXc5r3_21vm_cross_arch_support8encodingNtB5_15EncodingContext11has_feature
FNDA:0,_RNvNtNtCseSBbdzXc5r3_21vm_cross_arch_support8encoding5utils18convert_endianness
FNDA:0,_RNvXs_NtCseSBbdzXc5r3_21vm_cross_arch_support8encodingNtB4_12ArchitectureNtNtCskzPJi2J8k3N_4core3fmt7Display3fmt
FNF:21
FNH:16
DA:23,0
DA:24,0
DA:25,0
DA:26,0
DA:27,0
DA:29,0
DA:33,0
DA:34,0
DA:35,0
DA:36,0
DA:37,0
DA:39,0
DA:47,7
DA:48,7
DA:49,7
DA:70,6
DA:71,6
DA:72,1
DA:73,1
DA:74,1
DA:75,1
DA:76,1
DA:77,1
DA:78,1
DA:79,1
DA:80,1
DA:81,1
DA:82,1
DA:84,1
DA:85,1
DA:86,1
DA:87,1
DA:88,1
DA:90,1
DA:91,1
DA:92,1
DA:93,1
DA:94,1
DA:95,1
DA:96,1
DA:97,1
DA:98,1
DA:99,1
DA:100,1
DA:101,1
DA:102,1
DA:103,1
DA:105,6
DA:185,1
DA:186,1
DA:187,0
DA:188,1
DA:189,0
DA:192,1
DA:193,1
DA:194,1
DA:195,1
DA:196,1
DA:197,1
DA:198,1
DA:200,0
DA:201,0
DA:202,0
DA:203,0
DA:205,0
DA:206,0
DA:207,0
DA:307,4
DA:308,4
DA:309,2
DA:310,0
DA:311,0
DA:312,0
DA:313,0
DA:314,2
DA:315,0
DA:316,0
DA:317,0
DA:318,0
DA:319,0
DA:320,0
DA:321,0
DA:322,0
DA:324,4
DA:325,4
DA:329,2
DA:330,2
DA:331,2
DA:332,2
DA:336,2
DA:337,2
DA:338,2
DA:339,2
DA:343,2
DA:344,2
DA:345,0
DA:346,2
DA:347,2
DA:348,2
DA:349,1
DA:351,1
DA:353,2
DA:357,0
DA:358,0
DA:359,0
DA:360,0
DA:361,0
DA:362,0
DA:366,3
DA:367,3
DA:368,3
DA:372,3
DA:373,3
DA:374,3
DA:382,1
DA:383,1
DA:384,1
DA:385,1
DA:386,1
DA:387,1
DA:390,1
DA:391,1
DA:392,1
DA:393,1
DA:396,1
DA:397,1
DA:398,1
DA:399,1
DA:402,1
DA:404,1
DA:405,1
DA:406,1
DA:409,1
DA:410,1
DA:411,1
DA:412,1
DA:413,1
DA:416,1
DA:417,1
DA:418,1
DA:419,1
DA:420,1
DA:423,1
DA:427,1
DA:428,1
DA:429,1
DA:432,1
DA:433,1
DA:434,1
DA:437,1
DA:438,1
DA:439,1
DA:442,1
DA:443,1
DA:444,1
DA:447,1
DA:448,1
DA:449,1
DA:452,1
DA:453,1
DA:454,1
DA:455,1
BRF:0
BRH:0
LF:162
LH:122
end_of_record
SF:/Users/didi/Desktop/vm/vm-cross-arch-support/src/encoding_cache.rs
FN:210,_RNvXs_NtCseSBbdzXc5r3_21vm_cross_arch_support14encoding_cacheNtB4_24InstructionEncodingCacheNtNtCskzPJi2J8k3N_4core7default7Default7default
FN:221,_RNvNtNtCseSBbdzXc5r3_21vm_cross_arch_support14encoding_cache5tests23create_test_instruction
FN:251,_RNvNtNtCseSBbdzXc5r3_21vm_cross_arch_support14encoding_cache5testss_13test_hit_rate
FN:230,_RNvNtNtCseSBbdzXc5r3_21vm_cross_arch_support14encoding_cache5testss_19test_cache_creation
FN:276,_RNvNtNtCseSBbdzXc5r3_21vm_cross_arch_support14encoding_cache5testss_20test_invalidate_arch
FN:236,_RNvNtNtCseSBbdzXc5r3_21vm_cross_arch_support14encoding_cache5testss_21test_encode_or_lookup
FN:182,_RNCNvMNtCseSBbdzXc5r3_21vm_cross_arch_support14encoding_cacheNtB4_24InstructionEncodingCache15invalidate_arch0B6_
FN:160,_RNvMNtCseSBbdzXc5r3_21vm_cross_arch_support14encoding_cacheNtB2_24InstructionEncodingCache12encode_arm64
FN:154,_RNvMNtCseSBbdzXc5r3_21vm_cross_arch_support14encoding_cacheNtB2_24InstructionEncodingCache13encode_x86_64
FN:96,_RNvMNtCseSBbdzXc5r3_21vm_cross_arch_support14encoding_cacheNtB2_24InstructionEncodingCache13with_capacity
FN:170,_RNvMNtCseSBbdzXc5r3_21vm_cross_arch_support14encoding_cacheNtB2_24InstructionEncodingCache14encode_riscv64
FN:145,_RNvMNtCseSBbdzXc5r3_21vm_cross_arch_support14encoding_cacheNtB2_24InstructionEncodingCache15encode_fallback
FN:180,_RNvMNtCseSBbdzXc5r3_21vm_cross_arch_support14encoding_cacheNtB2_24InstructionEncodingCache15invalidate_arch
FN:106,_RNvMNtCseSBbdzXc5r3_21vm_cross_arch_support14encoding_cacheNtB2_24InstructionEncodingCache16encode_or_lookup
FN:91,_RNvMNtCseSBbdzXc5r3_21vm_cross_arch_support14encoding_cacheNtB2_24InstructionEncodingCache3new
FN:186,_RNvMNtCseSBbdzXc5r3_21vm_cross_arch_support14encoding_cacheNtB2_24InstructionEncodingCache5clear
FN:191,_RNvMNtCseSBbdzXc5r3_21vm_cross_arch_support14encoding_cacheNtB2_24InstructionEncodingCache5stats
FN:196,_RNvMNtCseSBbdzXc5r3_21vm_cross_arch_support14encoding_cacheNtB2_24InstructionEncodingCache8hit_rate
FN:133,_RNvMNtCseSBbdzXc5r3_21vm_cross_arch_support14encoding_cacheNtB2_24InstructionEncodingCache9cache_key
FNDA:0,_RNvXs_NtCseSBbdzXc5r3_21vm_cross_arch_support14encoding_cacheNtB4_24InstructionEncodingCacheNtNtCskzPJi2J8k3N_4core7default7Default7default
FNDA:4,_RNvNtNtCseSBbdzXc5r3_21vm_cross_arch_support14encoding_cache5tests23create_test_instruction
FNDA:1,_RNvNtNtCseSBbdzXc5r3_21vm_cross_arch_support14encoding_cache5testss_13test_hit_rate
FNDA:1,_RNvNtNtCseSBbdzXc5r3_21vm_cross_arch_support14encoding_cache5testss_19test_cache_creation
FNDA:1,_RNvNtNtCseSBbdzXc5r3_21vm_cross_arch_support14encoding_cache5testss_20test_invalidate_arch
FNDA:1,_RNvNtNtCseSBbdzXc5r3_21vm_cross_arch_support14encoding_cache5testss_21test_encode_or_lookup
FNDA:2,_RNCNvMNtCseSBbdzXc5r3_21vm_cross_arch_support14encoding_cacheNtB4_24InstructionEncodingCache15invalidate_arch0B6_
FNDA:55,_RNvMNtCseSBbdzXc5r3_21vm_cross_arch_support14encoding_cacheNtB2_24InstructionEncodingCache12encode_arm64
FNDA:377,_RNvMNtCseSBbdzXc5r3_21vm_cross_arch_support14encoding_cacheNtB2_24InstructionEncodingCache13encode_x86_64
FNDA:88,_RNvMNtCseSBbdzXc5r3_21vm_cross_arch_support14encoding_cacheNtB2_24InstructionEncodingCache13with_capacity
FNDA:11,_RNvMNtCseSBbdzXc5r3_21vm_cross_arch_support14encoding_cacheNtB2_24InstructionEncodingCache14encode_riscv64
FNDA:443,_RNvMNtCseSBbdzXc5r3_21vm_cross_arch_support14encoding_cacheNtB2_24InstructionEncodingCache15encode_fallback
FNDA:1,_RNvMNtCseSBbdzXc5r3_21vm_cross_arch_support14encoding_cacheNtB2_24InstructionEncodingCache15invalidate_arch
FNDA:4892,_RNvMNtCseSBbdzXc5r3_21vm_cross_arch_support14encoding_cacheNtB2_24InstructionEncodingCache16encode_or_lookup
FNDA:88,_RNvMNtCseSBbdzXc5r3_21vm_cross_arch_support14encoding_cacheNtB2_24InstructionEncodingCache3new
FNDA:4,_RNvMNtCseSBbdzXc5r3_21vm_cross_arch_support14encoding_cacheNtB2_24InstructionEncodingCache5clear
FNDA:2,_RNvMNtCseSBbdzXc5r3_21vm_cross_arch_support14encoding_cacheNtB2_24InstructionEncodingCache5stats
FNDA:2,_RNvMNtCseSBbdzXc5r3_21vm_cross_arch_support14encoding_cacheNtB2_24InstructionEncodingCache8hit_rate
FNDA:4892,_RNvMNtCseSBbdzXc5r3_21vm_cross_arch_support14encoding_cacheNtB2_24InstructionEncodingCache9cache_key
FNF:19
FNH:18
DA:91,88
DA:92,88
DA:93,88
DA:96,88
DA:97,88
DA:98,88
DA:99,88
DA:100,88
DA:101,88
DA:102,88
DA:103,88
DA:106,4892
DA:107,4892
DA:111,4892
DA:112,4892
DA:113,4449
DA:114,4449
DA:115,443
DA:119,443
DA:121,443
DA:122,443
DA:123,443
DA:124,443
DA:126,443
DA:127,443
DA:129,443
DA:130,4892
DA:133,4892
DA:137,4892
DA:138,4892
DA:139,4892
DA:141,4892
DA:142,4892
DA:145,443
DA:146,443
DA:147,377
DA:148,55
DA:149,11
DA:151,443
DA:154,377
DA:156,377
DA:157,377
DA:160,55
DA:161,55
DA:162,55
DA:163,55
DA:164,55
DA:165,55
DA:166,55
DA:167,55
DA:170,11
DA:171,11
DA:172,11
DA:173,11
DA:174,11
DA:175,11
DA:176,11
DA:177,11
DA:180,1
DA:181,1
DA:182,2
DA:183,1
DA:186,4
DA:187,4
DA:188,4
DA:191,2
DA:192,2
DA:193,2
DA:196,2
DA:197,2
DA:198,2
DA:199,2
DA:201,2
DA:202,1
DA:204,1
DA:206,2
DA:210,0
DA:211,0
DA:212,0
DA:221,4
DA:222,4
DA:223,4
DA:224,4
DA:225,4
DA:226,4
DA:227,4
DA:230,1
DA:231,1
DA:232,1
DA:233,1
DA:236,1
DA:237,1
DA:238,1
DA:241,1
DA:242,1
DA:245,1
DA:246,1
DA:247,1
DA:248,1
DA:251,1
DA:252,1
DA:253,1
DA:256,4
DA:257,3
DA:258,3
DA:259,8
DA:260,7
DA:261,7
DA:263,1
DA:264,1
DA:265,1
DA:266,1
DA:267,1
DA:268,1
DA:272,1
DA:273,1
DA:276,1
DA:277,1
DA:278,1
DA:279,1
DA:281,1
DA:282,1
DA:285,1
DA:288,1
DA:289,1
DA:290,1
BRF:0
BRH:0
LF:127
LH:124
end_of_record
SF:/Users/didi/Desktop/vm/vm-cross-arch-support/src/instruction_patterns.rs
FN:234,_RNvMs0_NtCseSBbdzXc5r3_21vm_cross_arch_support20instruction_patternsNtB5_13MemoryOperand6simple
FN:244,_RNvMs0_NtCseSBbdzXc5r3_21vm_cross_arch_support20instruction_patternsNtB5_13MemoryOperand7indexed
FN:325,_RNvMs1_NtCseSBbdzXc5r3_21vm_cross_arch_support20instruction_patternsNtB5_18InstructionPattern10with_flags
FN:345,_RNvMs1_NtCseSBbdzXc5r3_21vm_cross_arch_support20instruction_patternsNtB5_18InstructionPattern12with_latency
FN:315,_RNvMs1_NtCseSBbdzXc5r3_21vm_cross_arch_support20instruction_patternsNtB5_18InstructionPattern12with_operand
FN:361,_RNvMs1_NtCseSBbdzXc5r3_21vm_cross_arch_support20instruction_patternsNtB5_18InstructionPattern13operand_count
FN:330,_RNvMs1_NtCseSBbdzXc5r3_21vm_cross_arch_support20instruction_patternsNtB5_18InstructionPattern14with_semantics
FN:350,_RNvMs1_NtCseSBbdzXc5r3_21vm_cross_arch_support20instruction_patternsNtB5_18InstructionPattern15with_throughput
FN:366,_RNvMs1_NtCseSBbdzXc5r3_21vm_cross_arch_support20instruction_patternsNtB5_18InstructionPattern17has_operand_types
FN:335,_RNvMs1_NtCseSBbdzXc5r3_21vm_cross_arch_support20instruction_patternsNtB5_18InstructionPattern17with_architecture
FN:356,_RNvMs1_NtCseSBbdzXc5r3_21vm_cross_arch_support20instruction_patternsNtB5_18InstructionPattern18is_compatible_with
FN:340,_RNvMs1_NtCseSBbdzXc5r3_21vm_cross_arch_support20instruction_patternsNtB5_18InstructionPattern9with_cost
FN:422,_RNvMs2_NtCseSBbdzXc5r3_21vm_cross_arch_support20instruction_patternsNtB5_4IROp12with_operand
FN:452,_RNvMs3_NtCseSBbdzXc5r3_21vm_cross_arch_support20instruction_patternsNtB5_21DefaultPatternMatcher11add_pattern
FN:684,_RNvMs3_NtCseSBbdzXc5r3_21vm_cross_arch_support20instruction_patternsNtB5_21DefaultPatternMatcher19add_branch_patterns
FN:619,_RNvMs3_NtCseSBbdzXc5r3_21vm_cross_arch_support20instruction_patternsNtB5_21DefaultPatternMatcher19add_memory_patterns
FN:552,_RNvMs3_NtCseSBbdzXc5r3_21vm_cross_arch_support20instruction_patternsNtB5_21DefaultPatternMatcher20add_logical_patterns
FN:485,_RNvMs3_NtCseSBbdzXc5r3_21vm_cross_arch_support20instruction_patternsNtB5_21DefaultPatternMatcher23add_arithmetic_patterns
FN:477,_RNvMs3_NtCseSBbdzXc5r3_21vm_cross_arch_support20instruction_patternsNtB5_21DefaultPatternMatcher26initialize_common_patterns
FN:447,_RNvMs3_NtCseSBbdzXc5r3_21vm_cross_arch_support20instruction_patternsNtB5_21DefaultPatternMatcher3new
FN:721,_RNvXs4_NtCseSBbdzXc5r3_21vm_cross_arch_support20instruction_patternsNtB5_21DefaultPatternMatcherNtB5_14PatternMatcher13match_pattern
FN:30,_RNvXNtCseSBbdzXc5r3_21vm_cross_arch_support20instruction_patternsNtNtCsbkbnPoCG8ZW_7vm_core5error7VmErrorINtNtCskzPJi2J8k3N_4core7convert4FromNtB2_12PatternErrorE4from
FN:294,_RINvMs1_NtCseSBbdzXc5r3_21vm_cross_arch_support20instruction_patternsNtB6_18InstructionPattern3newReEB8_
FN:414,_RINvMs2_NtCseSBbdzXc5r3_21vm_cross_arch_support20instruction_patternsNtB6_4IROp3newReEB8_
FN:769,_RNCNvXs4_NtCseSBbdzXc5r3_21vm_cross_arch_support20instruction_patternsNtB7_21DefaultPatternMatcherNtB7_14PatternMatcher24get_patterns_by_category0B9_
FN:770,_RNCNvXs4_NtCseSBbdzXc5r3_21vm_cross_arch_support20instruction_patternsNtB7_21DefaultPatternMatcherNtB7_14PatternMatcher24get_patterns_by_categorys_0B9_
FN:218,_RNvMs0_NtCseSBbdzXc5r3_21vm_cross_arch_support20instruction_patternsNtB5_13MemoryOperand3new
FN:320,_RNvMs1_NtCseSBbdzXc5r3_21vm_cross_arch_support20instruction_patternsNtB5_18InstructionPattern13with_operands
FN:432,_RNvMs2_NtCseSBbdzXc5r3_21vm_cross_arch_support20instruction_patternsNtB5_4IROp10with_flags
FN:427,_RNvMs2_NtCseSBbdzXc5r3_21vm_cross_arch_support20instruction_patternsNtB5_4IROp13with_operands
FN:734,_RNvXs4_NtCseSBbdzXc5r3_21vm_cross_arch_support20instruction_patternsNtB5_21DefaultPatternMatcherNtB5_14PatternMatcher23get_equivalent_patterns
FN:762,_RNvXs4_NtCseSBbdzXc5r3_21vm_cross_arch_support20instruction_patternsNtB5_21DefaultPatternMatcherNtB5_14PatternMatcher24get_patterns_by_category
FN:785,_RNvXs4_NtCseSBbdzXc5r3_21vm_cross_arch_support20instruction_patternsNtB5_21DefaultPatternMatcherNtB5_14PatternMatcher4name
FN:202,_RNvXs_NtCseSBbdzXc5r3_21vm_cross_arch_support20instruction_patternsNtB4_11OperandTypeNtNtCskzPJi2J8k3N_4core7default7Default7default
FN:829,_RNvNtNtCseSBbdzXc5r3_21vm_cross_arch_support20instruction_patterns5testss_19test_memory_operand
FN:808,_RNvNtNtCseSBbdzXc5r3_21vm_cross_arch_support20instruction_patterns5testss_20test_pattern_matcher
FN:795,_RNvNtNtCseSBbdzXc5r3_21vm_cross_arch_support20instruction_patterns5testss_24test_instruction_pattern
FN:842,_RNvNtNtCseSBbdzXc5r3_21vm_cross_arch_support20instruction_patterns5testss_41test_pattern_error_to_vm_error_conversion
FNDA:3,_RNvMs0_NtCseSBbdzXc5r3_21vm_cross_arch_support20instruction_patternsNtB5_13MemoryOperand6simple
FNDA:1,_RNvMs0_NtCseSBbdzXc5r3_21vm_cross_arch_support20instruction_patternsNtB5_13MemoryOperand7indexed
FNDA:7,_RNvMs1_NtCseSBbdzXc5r3_21vm_cross_arch_support20instruction_patternsNtB5_18InstructionPattern10with_flags
FNDA:7,_RNvMs1_NtCseSBbdzXc5r3_21vm_cross_arch_support20instruction_patternsNtB5_18InstructionPattern12with_latency
FNDA:19,_RNvMs1_NtCseSBbdzXc5r3_21vm_cross_arch_support20instruction_patternsNtB5_18InstructionPattern12with_operand
FNDA:1,_RNvMs1_NtCseSBbdzXc5r3_21vm_cross_arch_support20instruction_patternsNtB5_18InstructionPattern13operand_count
FNDA:7,_RNvMs1_NtCseSBbdzXc5r3_21vm_cross_arch_support20instruction_patternsNtB5_18InstructionPattern14with_semantics
FNDA:7,_RNvMs1_NtCseSBbdzXc5r3_21vm_cross_arch_support20instruction_patternsNtB5_18InstructionPattern15with_throughput
FNDA:1,_RNvMs1_NtCseSBbdzXc5r3_21vm_cross_arch_support20instruction_patternsNtB5_18InstructionPattern17has_operand_types
FNDA:22,_RNvMs1_NtCseSBbdzXc5r3_21vm_cross_arch_support20instruction_patternsNtB5_18InstructionPattern17with_architecture
FNDA:2,_RNvMs1_NtCseSBbdzXc5r3_21vm_cross_arch_support20instruction_patternsNtB5_18InstructionPattern18is_compatible_with
FNDA:7,_RNvMs1_NtCseSBbdzXc5r3_21vm_cross_arch_support20instruction_patternsNtB5_18InstructionPattern9with_cost
FNDA:3,_RNvMs2_NtCseSBbdzXc5r3_21vm_cross_arch_support20instruction_patternsNtB5_4IROp12with_operand
FNDA:7,_RNvMs3_NtCseSBbdzXc5r3_21vm_cross_arch_support20instruction_patternsNtB5_21DefaultPatternMatcher11add_pattern
FNDA:1,_RNvMs3_NtCseSBbdzXc5r3_21vm_cross_arch_support20instruction_patternsNtB5_21DefaultPatternMatcher19add_branch_patterns
FNDA:1,_RNvMs3_NtCseSBbdzXc5r3_21vm_cross_arch_support20instruction_patternsNtB5_21DefaultPatternMatcher19add_memory_patterns
FNDA:1,_RNvMs3_NtCseSBbdzXc5r3_21vm_cross_arch_support20instruction_patternsNtB5_21DefaultPatternMatcher20add_logical_patterns
FNDA:1,_RNvMs3_NtCseSBbdzXc5r3_21vm_cross_arch_support20instruction_patternsNtB5_21DefaultPatternMatcher23add_arithmetic_patterns
FNDA:1,_RNvMs3_NtCseSBbdzXc5r3_21vm_cross_arch_support20instruction_patternsNtB5_21DefaultPatternMatcher26initialize_common_patterns
FNDA:1,_RNvMs3_NtCseSBbdzXc5r3_21vm_cross_arch_support20instruction_patternsNtB5_21DefaultPatternMatcher3new
FNDA:1,_RNvXs4_NtCseSBbdzXc5r3_21vm_cross_arch_support20instruction_patternsNtB5_21DefaultPatternMatcherNtB5_14PatternMatcher13match_pattern
FNDA:5,_RNvXNtCseSBbdzXc5r3_21vm_cross_arch_support20instruction_patternsNtNtCsbkbnPoCG8ZW_7vm_core5error7VmErrorINtNtCskzPJi2J8k3N_4core7convert4FromNtB2_12PatternErrorE4from
FNDA:8,_RINvMs1_NtCseSBbdzXc5r3_21vm_cross_arch_support20instruction_patternsNtB6_18InstructionPattern3newReEB8_
FNDA:1,_RINvMs2_NtCseSBbdzXc5r3_21vm_cross_arch_support20instruction_patternsNtB6_4IROp3newReEB8_
FNDA:0,_RNCNvXs4_NtCseSBbdzXc5r3_21vm_cross_arch_support20instruction_patternsNtB7_21DefaultPatternMatcherNtB7_14PatternMatcher24get_patterns_by_category0B9_
FNDA:0,_RNCNvXs4_NtCseSBbdzXc5r3_21vm_cross_arch_support20instruction_patternsNtB7_21DefaultPatternMatcherNtB7_14PatternMatcher24get_patterns_by_categorys_0B9_
FNDA:0,_RNvMs0_NtCseSBbdzXc5r3_21vm_cross_arch_support20instruction_patternsNtB5_13MemoryOperand3new
FNDA:0,_RNvMs1_NtCseSBbdzXc5r3_21vm_cross_arch_support20instruction_patternsNtB5_18InstructionPattern13with_operands
FNDA:0,_RNvMs2_NtCseSBbdzXc5r3_21vm_cross_arch_support20instruction_patternsNtB5_4IROp10with_flags
FNDA:0,_RNvMs2_NtCseSBbdzXc5r3_21vm_cross_arch_support20instruction_patternsNtB5_4IROp13with_operands
FNDA:0,_RNvXs4_NtCseSBbdzXc5r3_21vm_cross_arch_support20instruction_patternsNtB5_21DefaultPatternMatcherNtB5_14PatternMatcher23get_equivalent_patterns
FNDA:0,_RNvXs4_NtCseSBbdzXc5r3_21vm_cross_arch_support20instruction_patternsNtB5_21DefaultPatternMatcherNtB5_14PatternMatcher24get_patterns_by_category
FNDA:0,_RNvXs4_NtCseSBbdzXc5r3_21vm_cross_arch_support20instruction_patternsNtB5_21DefaultPatternMatcherNtB5_14PatternMatcher4name
FNDA:0,_RNvXs_NtCseSBbdzXc5r3_21vm_cross_arch_support20instruction_patternsNtB4_11OperandTypeNtNtCskzPJi2J8k3N_4core7default7Default7default
FNDA:1,_RNvNtNtCseSBbdzXc5r3_21vm_cross_arch_support20instruction_patterns5testss_19test_memory_operand
FNDA:1,_RNvNtNtCseSBbdzXc5r3_21vm_cross_arch_support20instruction_patterns5testss_20test_pattern_matcher
FNDA:1,_RNvNtNtCseSBbdzXc5r3_21vm_cross_arch_support20instruction_patterns5testss_24test_instruction_pattern
FNDA:1,_RNvNtNtCseSBbdzXc5r3_21vm_cross_arch_support20instruction_patterns5testss_41test_pattern_error_to_vm_error_conversion
FNF:38
FNH:28
DA:30,5
DA:31,5
DA:32,1
DA:33,1
DA:34,1
DA:35,1
DA:36,1
DA:37,1
DA:38,1
DA:39,1
DA:40,1
DA:41,1
DA:42,1
DA:43,1
DA:44,1
DA:45,1
DA:46,1
DA:47,1
DA:48,1
DA:49,1
DA:50,1
DA:51,1
DA:52,1
DA:53,1
DA:55,5
DA:202,0
DA:203,0
DA:204,0
DA:218,0
DA:219,0
DA:220,0
DA:221,0
DA:222,0
DA:223,0
DA:224,0
DA:225,0
DA:226,0
DA:227,0
DA:228,0
DA:229,0
DA:230,0
DA:231,0
DA:232,0
DA:234,3
DA:235,3
DA:236,3
DA:237,3
DA:238,3
DA:239,3
DA:240,3
DA:241,3
DA:242,3
DA:244,1
DA:245,1
DA:246,1
DA:247,1
DA:248,1
DA:249,1
DA:250,1
DA:251,1
DA:252,1
DA:294,8
DA:295,8
DA:296,8
DA:297,8
DA:298,8
DA:299,8
DA:300,8
DA:301,8
DA:302,8
DA:303,8
DA:304,8
DA:305,8
DA:306,8
DA:307,8
DA:308,8
DA:309,8
DA:310,8
DA:311,8
DA:312,8
DA:313,8
DA:315,19
DA:316,19
DA:317,19
DA:318,19
DA:320,0
DA:321,0
DA:322,0
DA:323,0
DA:325,7
DA:326,7
DA:327,7
DA:328,7
DA:330,7
DA:331,7
DA:332,7
DA:333,7
DA:335,22
DA:336,22
DA:337,22
DA:338,22
DA:340,7
DA:341,7
DA:342,7
DA:343,7
DA:345,7
DA:346,7
DA:347,7
DA:348,7
DA:350,7
DA:351,7
DA:352,7
DA:353,7
DA:356,2
DA:357,2
DA:358,2
DA:361,1
DA:362,1
DA:363,1
DA:366,1
DA:367,1
DA:368,0
DA:369,1
DA:371,3
DA:372,3
DA:373,3
DA:374,0
DA:375,0
DA:376,0
DA:377,0
DA:378,0
DA:382,1
DA:383,1
DA:414,1
DA:415,1
DA:416,1
DA:417,1
DA:418,1
DA:419,1
DA:420,1
DA:422,3
DA:423,3
DA:424,3
DA:425,3
DA:427,0
DA:428,0
DA:429,0
DA:430,0
DA:432,0
DA:433,0
DA:434,0
DA:435,0
DA:447,1
DA:448,1
DA:449,1
DA:452,7
DA:453,7
DA:456,7
DA:457,7
DA:458,7
DA:459,7
DA:462,7
DA:463,7
DA:464,7
DA:465,7
DA:468,28
DA:469,21
DA:470,21
DA:471,21
DA:472,21
DA:473,21
DA:474,7
DA:477,1
DA:478,1
DA:479,1
DA:480,1
DA:481,1
DA:482,1
DA:485,1
DA:487,1
DA:488,1
DA:489,1
DA:490,1
DA:491,1
DA:492,1
DA:493,1
DA:494,1
DA:495,1
DA:496,1
DA:497,1
DA:498,1
DA:499,1
DA:500,1
DA:501,1
DA:502,1
DA:503,1
DA:504,1
DA:505,1
DA:506,1
DA:507,1
DA:508,1
DA:509,1
DA:510,1
DA:511,1
DA:512,1
DA:513,1
DA:514,1
DA:516,1
DA:519,1
DA:520,1
DA:521,1
DA:522,1
DA:523,1
DA:524,1
DA:525,1
DA:526,1
DA:527,1
DA:528,1
DA:529,1
DA:530,1
DA:531,1
DA:532,1
DA:533,1
DA:534,1
DA:535,1
DA:536,1
DA:537,1
DA:538,1
DA:539,1
DA:540,1
DA:541,1
DA:542,1
DA:543,1
DA:544,1
DA:545,1
DA:546,1
DA:548,1
DA:549,1
DA:552,1
DA:554,1
DA:555,1
DA:556,1
DA:557,1
DA:558,1
DA:559,1
DA:560,1
DA:561,1
DA:562,1
DA:563,1
DA:564,1
DA:565,1
DA:566,1
DA:567,1
DA:568,1
DA:569,1
DA:570,1
DA:571,1
DA:572,1
DA:573,1
DA:574,1
DA:575,1
DA:576,1
DA:577,1
DA:578,1
DA:579,1
DA:580,1
DA:581,1
DA:583,1
DA:586,1
DA:587,1
DA:588,1
DA:589,1
DA:590,1
DA:591,1
DA:592,1
DA:593,1
DA:594,1
DA:595,1
DA:596,1
DA:597,1
DA:598,1
DA:599,1
DA:600,1
DA:601,1
DA:602,1
DA:603,1
DA:604,1
DA:605,1
DA:606,1
DA:607,1
DA:608,1
DA:609,1
DA:610,1
DA:611,1
DA:612,1
DA:613,1
DA:615,1
DA:616,1
DA:619,1
DA:621,1
DA:622,1
DA:623,1
DA:624,1
DA:625,1
DA:626,1
DA:627,1
DA:628,1
DA:629,1
DA:630,1
DA:631,1
DA:632,1
DA:633,1
DA:634,1
DA:635,1
DA:636,1
DA:637,1
DA:638,1
DA:639,1
DA:640,1
DA:641,1
DA:642,1
DA:643,1
DA:644,1
DA:645,1
DA:646,1
DA:647,1
DA:649,1
DA:652,1
DA:653,1
DA:654,1
DA:655,1
DA:656,1
DA:657,1
DA:658,1
DA:659,1
DA:660,1
DA:661,1
DA:662,1
DA:663,1
DA:664,1
DA:665,1
DA:666,1
DA:667,1
DA:668,1
DA:669,1
DA:670,1
DA:671,1
DA:672,1
DA:673,1
DA:674,1
DA:675,1
DA:676,1
DA:677,1
DA:678,1
DA:680,1
DA:681,1
DA:684,1
DA:686,1
DA:688,1
DA:690,1
DA:691,1
DA:692,1
DA:693,1
DA:694,1
DA:695,1
DA:696,1
DA:697,1
DA:698,1
DA:699,1
DA:700,1
DA:701,1
DA:702,1
DA:703,1
DA:704,1
DA:705,1
DA:706,1
DA:707,1
DA:708,1
DA:709,1
DA:710,1
DA:711,1
DA:712,1
DA:713,1
DA:714,1
DA:716,1
DA:717,1
DA:721,1
DA:722,1
DA:725,1
DA:726,1
DA:727,1
DA:728,0
DA:731,0
DA:732,1
DA:734,0
DA:735,0
DA:736,0
DA:737,0
DA:738,0
DA:739,0
DA:742,0
DA:744,0
DA:746,0
DA:747,0
DA:748,0
DA:749,0
DA:750,0
DA:751,0
DA:752,0
DA:753,0
DA:755,0
DA:757,0
DA:759,0
DA:760,0
DA:762,0
DA:763,0
DA:765,0
DA:767,0
DA:768,0
DA:769,0
DA:770,0
DA:771,0
DA:773,0
DA:775,0
DA:776,0
DA:777,0
DA:778,0
DA:780,0
DA:782,0
DA:783,0
DA:785,0
DA:786,0
DA:787,0
DA:795,1
DA:796,1
DA:797,1
DA:798,1
DA:799,1
DA:800,1
DA:802,1
DA:803,1
DA:804,1
DA:805,1
DA:808,1
DA:809,1
DA:810,1
DA:812,1
DA:813,1
DA:814,1
DA:815,1
DA:817,1
DA:818,1
DA:820,1
DA:821,1
DA:822,1
DA:823,1
DA:826,1
DA:829,1
DA:830,1
DA:831,1
DA:832,1
DA:833,1
DA:835,1
DA:836,1
DA:837,1
DA:838,1
DA:839,1
DA:842,1
DA:846,1
DA:847,1
DA:848,1
DA:851,1
DA:852,1
DA:853,1
DA:856,1
DA:857,1
DA:858,1
DA:861,1
DA:862,1
DA:863,1
DA:866,1
DA:867,1
DA:868,1
DA:869,1
BRF:0
BRH:0
LF:486
LH:407
end_of_record
SF:/Users/didi/Desktop/vm/vm-cross-arch-support/src/lib.rs
FN:75,_RNvNtCseSBbdzXc5r3_21vm_cross_arch_support5testss_11test_reg_id
FN:82,_RNvNtCseSBbdzXc5r3_21vm_cross_arch_support5testss_21test_encoding_context
FN:69,_RNvNtCseSBbdzXc5r3_21vm_cross_arch_support5testss_22test_architecture_enum
FNDA:1,_RNvNtCseSBbdzXc5r3_21vm_cross_arch_support5testss_11test_reg_id
FNDA:1,_RNvNtCseSBbdzXc5r3_21vm_cross_arch_support5testss_21test_encoding_context
FNDA:1,_RNvNtCseSBbdzXc5r3_21vm_cross_arch_support5testss_22test_architecture_enum
FNF:3
FNH:3
DA:69,1
DA:70,1
DA:71,1
DA:72,1
DA:75,1
DA:76,1
DA:77,1
DA:78,1
DA:79,1
DA:82,1
DA:83,1
DA:84,1
DA:85,1
DA:86,1
BRF:0
BRH:0
LF:14
LH:14
end_of_record
SF:/Users/didi/Desktop/vm/vm-cross-arch-support/src/memory_access.rs
FN:38,_RNvXNtCseSBbdzXc5r3_21vm_cross_arch_support13memory_accessNtNtCsbkbnPoCG8ZW_7vm_core5error7VmErrorINtNtCskzPJi2J8k3N_4core7convert4FromNtB2_11MemoryErrorE4from
FN:483,_RINvMs2_NtCseSBbdzXc5r3_21vm_cross_arch_support13memory_accessNtB6_19EndiannessConverter13convert_valuepEB8_
FN:408,_RNCNvXs1_NtCseSBbdzXc5r3_21vm_cross_arch_support13memory_accessNtB7_28DefaultMemoryAccessOptimizerNtB7_21MemoryAccessOptimizer13suggest_fixes0B9_
FN:171,_RNvMs_NtCseSBbdzXc5r3_21vm_cross_arch_support13memory_accessNtB4_19MemoryAccessPattern10with_flags
FN:176,_RNvMs_NtCseSBbdzXc5r3_21vm_cross_arch_support13memory_accessNtB4_19MemoryAccessPattern11with_repeat
FN:405,_RNvXs1_NtCseSBbdzXc5r3_21vm_cross_arch_support13memory_accessNtB5_28DefaultMemoryAccessOptimizerNtB5_21MemoryAccessOptimizer13suggest_fixes
FN:375,_RNvXs1_NtCseSBbdzXc5r3_21vm_cross_arch_support13memory_accessNtB5_28DefaultMemoryAccessOptimizerNtB5_21MemoryAccessOptimizer23detect_alignment_issues
FN:428,_RNvXs1_NtCseSBbdzXc5r3_21vm_cross_arch_support13memory_accessNtB5_28DefaultMemoryAccessOptimizerNtB5_21MemoryAccessOptimizer4name
FN:546,_RNvXs3_NtCseSBbdzXc5r3_21vm_cross_arch_support13memory_accessNtB5_20MemoryAccessAnalyzerNtNtCskzPJi2J8k3N_4core7default7Default7default
FN:643,_RNvNtNtCseSBbdzXc5r3_21vm_cross_arch_support13memory_access5testss_25test_endianness_converter
FN:633,_RNvNtNtCseSBbdzXc5r3_21vm_cross_arch_support13memory_access5testss_26test_memory_access_pattern
FN:667,_RNvNtNtCseSBbdzXc5r3_21vm_cross_arch_support13memory_access5testss_27test_memory_access_analyzer
FN:656,_RNvNtNtCseSBbdzXc5r3_21vm_cross_arch_support13memory_access5testss_28test_memory_access_optimizer
FN:692,_RNvNtNtCseSBbdzXc5r3_21vm_cross_arch_support13memory_access5testss_40test_memory_error_to_vm_error_conversion
FN:306,_RNvMs0_NtCseSBbdzXc5r3_21vm_cross_arch_support13memory_accessNtB5_28DefaultMemoryAccessOptimizer3new
FN:526,_RNvMs2_NtCseSBbdzXc5r3_21vm_cross_arch_support13memory_accessNtB5_19EndiannessConverter12lazy_convert
FN:491,_RNvMs2_NtCseSBbdzXc5r3_21vm_cross_arch_support13memory_accessNtB5_19EndiannessConverter14direct_convert
FN:497,_RNvMs2_NtCseSBbdzXc5r3_21vm_cross_arch_support13memory_accessNtB5_19EndiannessConverter17optimized_convert
FN:532,_RNvMs2_NtCseSBbdzXc5r3_21vm_cross_arch_support13memory_accessNtB5_19EndiannessConverter19precomputed_convert
FN:460,_RNvMs2_NtCseSBbdzXc5r3_21vm_cross_arch_support13memory_accessNtB5_19EndiannessConverter3new
FN:469,_RNvMs2_NtCseSBbdzXc5r3_21vm_cross_arch_support13memory_accessNtB5_19EndiannessConverter7convert
FN:560,_RNvMs4_NtCseSBbdzXc5r3_21vm_cross_arch_support13memory_accessNtB5_20MemoryAccessAnalyzer11add_pattern
FN:552,_RNvMs4_NtCseSBbdzXc5r3_21vm_cross_arch_support13memory_accessNtB5_20MemoryAccessAnalyzer3new
FN:569,_RNvMs4_NtCseSBbdzXc5r3_21vm_cross_arch_support13memory_accessNtB5_20MemoryAccessAnalyzer7analyze
FN:161,_RNvMs_NtCseSBbdzXc5r3_21vm_cross_arch_support13memory_accessNtB4_19MemoryAccessPattern14with_alignment
FN:166,_RNvMs_NtCseSBbdzXc5r3_21vm_cross_arch_support13memory_accessNtB4_19MemoryAccessPattern16with_access_type
FN:194,_RNvMs_NtCseSBbdzXc5r3_21vm_cross_arch_support13memory_accessNtB4_19MemoryAccessPattern18required_alignment
FN:149,_RNvMs_NtCseSBbdzXc5r3_21vm_cross_arch_support13memory_accessNtB4_19MemoryAccessPattern3new
FN:182,_RNvMs_NtCseSBbdzXc5r3_21vm_cross_arch_support13memory_accessNtB4_19MemoryAccessPattern4size
FN:328,_RNvXs1_NtCseSBbdzXc5r3_21vm_cross_arch_support13memory_accessNtB5_28DefaultMemoryAccessOptimizerNtB5_21MemoryAccessOptimizer23optimize_access_pattern
FNDA:7,_RNvXNtCseSBbdzXc5r3_21vm_cross_arch_support13memory_accessNtNtCsbkbnPoCG8ZW_7vm_core5error7VmErrorINtNtCskzPJi2J8k3N_4core7convert4FromNtB2_11MemoryErrorE4from
FNDA:0,_RINvMs2_NtCseSBbdzXc5r3_21vm_cross_arch_support13memory_accessNtB6_19EndiannessConverter13convert_valuepEB8_
FNDA:0,_RNCNvXs1_NtCseSBbdzXc5r3_21vm_cross_arch_support13memory_accessNtB7_28DefaultMemoryAccessOptimizerNtB7_21MemoryAccessOptimizer13suggest_fixes0B9_
FNDA:0,_RNvMs_NtCseSBbdzXc5r3_21vm_cross_arch_support13memory_accessNtB4_19MemoryAccessPattern10with_flags
FNDA:0,_RNvMs_NtCseSBbdzXc5r3_21vm_cross_arch_support13memory_accessNtB4_19MemoryAccessPattern11with_repeat
FNDA:0,_RNvXs1_NtCseSBbdzXc5r3_21vm_cross_arch_support13memory_accessNtB5_28DefaultMemoryAccessOptimizerNtB5_21MemoryAccessOptimizer13suggest_fixes
FNDA:0,_RNvXs1_NtCseSBbdzXc5r3_21vm_cross_arch_support13memory_accessNtB5_28DefaultMemoryAccessOptimizerNtB5_21MemoryAccessOptimizer23detect_alignment_issues
FNDA:0,_RNvXs1_NtCseSBbdzXc5r3_21vm_cross_arch_support13memory_accessNtB5_28DefaultMemoryAccessOptimizerNtB5_21MemoryAccessOptimizer4name
FNDA:0,_RNvXs3_NtCseSBbdzXc5r3_21vm_cross_arch_support13memory_accessNtB5_20MemoryAccessAnalyzerNtNtCskzPJi2J8k3N_4core7default7Default7default
FNDA:1,_RNvNtNtCseSBbdzXc5r3_21vm_cross_arch_support13memory_access5testss_25test_endianness_converter
FNDA:1,_RNvNtNtCseSBbdzXc5r3_21vm_cross_arch_support13memory_access5testss_26test_memory_access_pattern
FNDA:1,_RNvNtNtCseSBbdzXc5r3_21vm_cross_arch_support13memory_access5testss_27test_memory_access_analyzer
FNDA:1,_RNvNtNtCseSBbdzXc5r3_21vm_cross_arch_support13memory_access5testss_28test_memory_access_optimizer
FNDA:1,_RNvNtNtCseSBbdzXc5r3_21vm_cross_arch_support13memory_access5testss_40test_memory_error_to_vm_error_conversion
FNDA:1,_RNvMs0_NtCseSBbdzXc5r3_21vm_cross_arch_support13memory_accessNtB5_28DefaultMemoryAccessOptimizer3new
FNDA:0,_RNvMs2_NtCseSBbdzXc5r3_21vm_cross_arch_support13memory_accessNtB5_19EndiannessConverter12lazy_convert
FNDA:1,_RNvMs2_NtCseSBbdzXc5r3_21vm_cross_arch_support13memory_accessNtB5_19EndiannessConverter14direct_convert
FNDA:0,_RNvMs2_NtCseSBbdzXc5r3_21vm_cross_arch_support13memory_accessNtB5_19EndiannessConverter17optimized_convert
FNDA:0,_RNvMs2_NtCseSBbdzXc5r3_21vm_cross_arch_support13memory_accessNtB5_19EndiannessConverter19precomputed_convert
FNDA:1,_RNvMs2_NtCseSBbdzXc5r3_21vm_cross_arch_support13memory_accessNtB5_19EndiannessConverter3new
FNDA:1,_RNvMs2_NtCseSBbdzXc5r3_21vm_cross_arch_support13memory_accessNtB5_19EndiannessConverter7convert
FNDA:3,_RNvMs4_NtCseSBbdzXc5r3_21vm_cross_arch_support13memory_accessNtB5_20MemoryAccessAnalyzer11add_pattern
FNDA:1,_RNvMs4_NtCseSBbdzXc5r3_21vm_cross_arch_support13memory_accessNtB5_20MemoryAccessAnalyzer3new
FNDA:1,_RNvMs4_NtCseSBbdzXc5r3_21vm_cross_arch_support13memory_accessNtB5_20MemoryAccessAnalyzer7analyze
FNDA:2,_RNvMs_NtCseSBbdzXc5r3_21vm_cross_arch_support13memory_accessNtB4_19MemoryAccessPattern14with_alignment
FNDA:1,_RNvMs_NtCseSBbdzXc5r3_21vm_cross_arch_support13memory_accessNtB4_19MemoryAccessPattern16with_access_type
FNDA:1,_RNvMs_NtCseSBbdzXc5r3_21vm_cross_arch_support13memory_accessNtB4_19MemoryAccessPattern18required_alignment
FNDA:5,_RNvMs_NtCseSBbdzXc5r3_21vm_cross_arch_support13memory_accessNtB4_19MemoryAccessPattern3new
FNDA:4,_RNvMs_NtCseSBbdzXc5r3_21vm_cross_arch_support13memory_accessNtB4_19MemoryAccessPattern4size
FNDA:1,_RNvXs1_NtCseSBbdzXc5r3_21vm_cross_arch_support13memory_accessNtB5_28DefaultMemoryAccessOptimizerNtB5_21MemoryAccessOptimizer23optimize_access_pattern
FNF:30
FNH:19
DA:38,7
DA:39,7
DA:40,1
DA:41,1
DA:42,1
DA:43,1
DA:44,1
DA:45,1
DA:47,1
DA:48,1
DA:49,1
DA:50,1
DA:51,1
DA:52,1
DA:54,1
DA:55,1
DA:56,1
DA:57,1
DA:58,1
DA:59,1
DA:60,1
DA:61,1
DA:62,1
DA:63,1
DA:64,1
DA:66,1
DA:67,1
DA:68,1
DA:69,1
DA:70,1
DA:71,1
DA:72,1
DA:73,1
DA:74,1
DA:75,1
DA:76,1
DA:77,1
DA:79,7
DA:149,5
DA:150,5
DA:151,5
DA:152,5
DA:153,5
DA:154,5
DA:155,5
DA:156,5
DA:157,5
DA:158,5
DA:159,5
DA:161,2
DA:162,2
DA:163,2
DA:164,2
DA:166,1
DA:167,1
DA:168,1
DA:169,1
DA:171,0
DA:172,0
DA:173,0
DA:174,0
DA:176,0
DA:177,0
DA:178,0
DA:179,0
DA:182,4
DA:183,4
DA:184,0
DA:185,0
DA:186,3
DA:187,1
DA:188,0
DA:189,0
DA:191,4
DA:194,1
DA:195,1
DA:196,0
DA:197,0
DA:198,0
DA:199,1
DA:200,0
DA:201,0
DA:202,0
DA:203,0
DA:204,0
DA:205,0
DA:207,1
DA:306,1
DA:307,1
DA:308,1
DA:309,0
DA:310,0
DA:313,1
DA:314,1
DA:315,0
DA:316,0
DA:319,1
DA:320,1
DA:321,1
DA:322,1
DA:323,1
DA:324,1
DA:328,1
DA:329,1
DA:330,1
DA:331,1
DA:334,1
DA:335,1
DA:336,0
DA:337,0
DA:341,1
DA:342,1
DA:343,1
DA:344,1
DA:345,1
DA:348,1
DA:349,0
DA:350,0
DA:351,0
DA:352,0
DA:353,0
DA:354,0
DA:355,1
DA:358,1
DA:359,1
DA:360,1
DA:361,1
DA:362,1
DA:363,1
DA:364,1
DA:365,1
DA:367,1
DA:368,1
DA:369,1
DA:370,1
DA:371,1
DA:372,1
DA:373,1
DA:375,0
DA:376,0
DA:377,0
DA:378,0
DA:379,0
DA:381,0
DA:382,0
DA:383,0
DA:384,0
DA:385,0
DA:387,0
DA:390,0
DA:391,0
DA:392,0
DA:393,0
DA:394,0
DA:395,0
DA:396,0
DA:397,0
DA:398,0
DA:399,0
DA:400,0
DA:402,0
DA:403,0
DA:405,0
DA:406,0
DA:407,0
DA:408,0
DA:409,0
DA:410,0
DA:411,0
DA:412,0
DA:413,0
DA:414,0
DA:415,0
DA:416,0
DA:417,0
DA:418,0
DA:419,0
DA:420,0
DA:421,0
DA:422,0
DA:423,0
DA:424,0
DA:425,0
DA:426,0
DA:428,0
DA:429,0
DA:430,0
DA:460,1
DA:461,1
DA:462,1
DA:463,1
DA:464,1
DA:465,1
DA:466,1
DA:469,1
DA:470,1
DA:471,0
DA:472,1
DA:474,1
DA:475,1
DA:476,0
DA:477,0
DA:478,0
DA:480,1
DA:483,0
DA:484,0
DA:485,0
DA:487,0
DA:488,0
DA:491,1
DA:492,1
DA:493,1
DA:494,1
DA:497,0
DA:498,0
DA:499,0
DA:500,0
DA:501,0
DA:502,0
DA:503,0
DA:504,0
DA:505,0
DA:506,0
DA:507,0
DA:508,0
DA:509,0
DA:510,0
DA:511,0
DA:512,0
DA:513,0
DA:514,0
DA:515,0
DA:516,0
DA:517,0
DA:518,0
DA:519,0
DA:520,0
DA:522,0
DA:523,0
DA:526,0
DA:528,0
DA:529,0
DA:532,0
DA:534,0
DA:535,0
DA:546,0
DA:547,0
DA:548,0
DA:552,1
DA:553,1
DA:554,1
DA:555,1
DA:556,1
DA:557,1
DA:560,3
DA:561,3
DA:564,3
DA:565,3
DA:566,3
DA:569,1
DA:570,1
DA:571,1
DA:572,1
DA:573,1
DA:574,1
DA:576,4
DA:577,3
DA:579,3
DA:580,0
DA:581,3
DA:583,3
DA:584,0
DA:585,3
DA:587,3
DA:588,0
DA:589,3
DA:591,3
DA:592,3
DA:595,1
DA:596,1
DA:597,1
DA:598,1
DA:600,1
DA:601,1
DA:602,1
DA:603,1
DA:604,1
DA:605,1
DA:606,1
DA:607,1
DA:608,1
DA:609,1
DA:610,1
DA:611,1
DA:633,1
DA:634,1
DA:635,1
DA:636,1
DA:638,1
DA:639,1
DA:640,1
DA:643,1
DA:644,1
DA:645,1
DA:646,1
DA:647,1
DA:650,1
DA:651,1
DA:652,1
DA:653,1
DA:656,1
DA:657,1
DA:658,1
DA:659,1
DA:661,1
DA:662,1
DA:663,1
DA:664,1
DA:667,1
DA:668,1
DA:670,1
DA:671,1
DA:673,1
DA:675,1
DA:676,1
DA:678,1
DA:680,1
DA:681,1
DA:683,1
DA:686,1
DA:687,1
DA:688,1
DA:689,1
DA:692,1
DA:696,1
DA:697,1
DA:698,1
DA:701,1
DA:702,1
DA:703,1
DA:706,1
DA:707,1
DA:708,1
DA:711,1
DA:712,1
DA:713,1
DA:716,1
DA:717,1
DA:718,1
DA:721,1
DA:722,1
DA:723,1
DA:726,1
DA:727,1
DA:728,1
DA:729,1
BRF:0
BRH:0
LF:357
LH:227
end_of_record
SF:/Users/didi/Desktop/vm/vm-cross-arch-support/src/pattern_cache.rs
FN:55,_RNvMNtCseSBbdzXc5r3_21vm_cross_arch_support13pattern_cacheNtB2_15PatternFeatures4hash
FN:496,_RNvMs_NtCseSBbdzXc5r3_21vm_cross_arch_support13pattern_cacheNtB4_17PatternMatchCache10hash_bytes
FN:212,_RNvMs_NtCseSBbdzXc5r3_21vm_cross_arch_support13pattern_cacheNtB4_17PatternMatchCache11detect_load
FN:375,_RNvMs_NtCseSBbdzXc5r3_21vm_cross_arch_support13pattern_cacheNtB4_17PatternMatchCache12detect_float
FN:316,_RNvMs_NtCseSBbdzXc5r3_21vm_cross_arch_support13pattern_cacheNtB4_17PatternMatchCache12detect_logic
FN:238,_RNvMs_NtCseSBbdzXc5r3_21vm_cross_arch_support13pattern_cacheNtB4_17PatternMatchCache12detect_store
FN:263,_RNvMs_NtCseSBbdzXc5r3_21vm_cross_arch_support13pattern_cacheNtB4_17PatternMatchCache13detect_branch
FN:350,_RNvMs_NtCseSBbdzXc5r3_21vm_cross_arch_support13pattern_cacheNtB4_17PatternMatchCache13detect_vector
FN:503,_RNvMs_NtCseSBbdzXc5r3_21vm_cross_arch_support13pattern_cacheNtB4_17PatternMatchCache15invalidate_arch
FN:180,_RNvMs_NtCseSBbdzXc5r3_21vm_cross_arch_support13pattern_cacheNtB4_17PatternMatchCache16extract_features
FN:134,_RNvMs_NtCseSBbdzXc5r3_21vm_cross_arch_support13pattern_cacheNtB4_17PatternMatchCache16match_or_analyze
FN:289,_RNvMs_NtCseSBbdzXc5r3_21vm_cross_arch_support13pattern_cacheNtB4_17PatternMatchCache17detect_arithmetic
FN:400,_RNvMs_NtCseSBbdzXc5r3_21vm_cross_arch_support13pattern_cacheNtB4_17PatternMatchCache17detect_compressed
FN:434,_RNvMs_NtCseSBbdzXc5r3_21vm_cross_arch_support13pattern_cacheNtB4_17PatternMatchCache18infer_pattern_name
FN:490,_RNvMs_NtCseSBbdzXc5r3_21vm_cross_arch_support13pattern_cacheNtB4_17PatternMatchCache19infer_operand_types
FN:411,_RNvMs_NtCseSBbdzXc5r3_21vm_cross_arch_support13pattern_cacheNtB4_17PatternMatchCache22estimate_operand_count
FN:514,_RNvMs_NtCseSBbdzXc5r3_21vm_cross_arch_support13pattern_cacheNtB4_17PatternMatchCache3len
FN:123,_RNvMs_NtCseSBbdzXc5r3_21vm_cross_arch_support13pattern_cacheNtB4_17PatternMatchCache3new
FN:508,_RNvMs_NtCseSBbdzXc5r3_21vm_cross_arch_support13pattern_cacheNtB4_17PatternMatchCache5clear
FN:537,_RNvMs_NtCseSBbdzXc5r3_21vm_cross_arch_support13pattern_cacheNtB4_17PatternMatchCache5stats
FN:524,_RNvMs_NtCseSBbdzXc5r3_21vm_cross_arch_support13pattern_cacheNtB4_17PatternMatchCache8hit_rate
FN:519,_RNvMs_NtCseSBbdzXc5r3_21vm_cross_arch_support13pattern_cacheNtB4_17PatternMatchCache8is_empty
FN:701,_RNvNtNtCseSBbdzXc5r3_21vm_cross_arch_support13pattern_cache5testss_16test_clear_cache
FN:647,_RNvNtNtCseSBbdzXc5r3_21vm_cross_arch_support13pattern_cache5testss_19test_cache_hit_rate
FN:684,_RNvNtNtCseSBbdzXc5r3_21vm_cross_arch_support13pattern_cache5testss_20test_invalidate_arch
FN:580,_RNvNtNtCseSBbdzXc5r3_21vm_cross_arch_support13pattern_cache5testss_25test_riscv_load_detection
FN:665,_RNvNtNtCseSBbdzXc5r3_21vm_cross_arch_support13pattern_cache5testss_26test_pattern_features_hash
FN:593,_RNvNtNtCseSBbdzXc5r3_21vm_cross_arch_support13pattern_cache5testss_26test_riscv_store_detection
FN:573,_RNvNtNtCseSBbdzXc5r3_21vm_cross_arch_support13pattern_cache5testss_27test_pattern_cache_creation
FN:606,_RNvNtNtCseSBbdzXc5r3_21vm_cross_arch_support13pattern_cache5testss_27test_riscv_branch_detection
FN:619,_RNvNtNtCseSBbdzXc5r3_21vm_cross_arch_support13pattern_cache5testss_31test_riscv_arithmetic_detection
FN:633,_RNvNtNtCseSBbdzXc5r3_21vm_cross_arch_support13pattern_cache5testss_31test_riscv_compressed_detection
FN:504,_RNCNvMs_NtCseSBbdzXc5r3_21vm_cross_arch_support13pattern_cacheNtB6_17PatternMatchCache15invalidate_arch0B8_
FNDA:2,_RNvMNtCseSBbdzXc5r3_21vm_cross_arch_support13pattern_cacheNtB2_15PatternFeatures4hash
FNDA:4879,_RNvMs_NtCseSBbdzXc5r3_21vm_cross_arch_support13pattern_cacheNtB4_17PatternMatchCache10hash_bytes
FNDA:792,_RNvMs_NtCseSBbdzXc5r3_21vm_cross_arch_support13pattern_cacheNtB4_17PatternMatchCache11detect_load
FNDA:396,_RNvMs_NtCseSBbdzXc5r3_21vm_cross_arch_support13pattern_cacheNtB4_17PatternMatchCache12detect_float
FNDA:396,_RNvMs_NtCseSBbdzXc5r3_21vm_cross_arch_support13pattern_cacheNtB4_17PatternMatchCache12detect_logic
FNDA:792,_RNvMs_NtCseSBbdzXc5r3_21vm_cross_arch_support13pattern_cacheNtB4_17PatternMatchCache12detect_store
FNDA:792,_RNvMs_NtCseSBbdzXc5r3_21vm_cross_arch_support13pattern_cacheNtB4_17PatternMatchCache13detect_branch
FNDA:396,_RNvMs_NtCseSBbdzXc5r3_21vm_cross_arch_support13pattern_cacheNtB4_17PatternMatchCache13detect_vector
FNDA:1,_RNvMs_NtCseSBbdzXc5r3_21vm_cross_arch_support13pattern_cacheNtB4_17PatternMatchCache15invalidate_arch
FNDA:396,_RNvMs_NtCseSBbdzXc5r3_21vm_cross_arch_support13pattern_cacheNtB4_17PatternMatchCache16extract_features
FNDA:4879,_RNvMs_NtCseSBbdzXc5r3_21vm_cross_arch_support13pattern_cacheNtB4_17PatternMatchCache16match_or_analyze
FNDA:792,_RNvMs_NtCseSBbdzXc5r3_21vm_cross_arch_support13pattern_cacheNtB4_17PatternMatchCache17detect_arithmetic
FNDA:396,_RNvMs_NtCseSBbdzXc5r3_21vm_cross_arch_support13pattern_cacheNtB4_17PatternMatchCache17detect_compressed
FNDA:397,_RNvMs_NtCseSBbdzXc5r3_21vm_cross_arch_support13pattern_cacheNtB4_17PatternMatchCache18infer_pattern_name
FNDA:397,_RNvMs_NtCseSBbdzXc5r3_21vm_cross_arch_support13pattern_cacheNtB4_17PatternMatchCache19infer_operand_types
FNDA:396,_RNvMs_NtCseSBbdzXc5r3_21vm_cross_arch_support13pattern_cacheNtB4_17PatternMatchCache22estimate_operand_count
FNDA:5,_RNvMs_NtCseSBbdzXc5r3_21vm_cross_arch_support13pattern_cacheNtB4_17PatternMatchCache3len
FNDA:93,_RNvMs_NtCseSBbdzXc5r3_21vm_cross_arch_support13pattern_cacheNtB4_17PatternMatchCache3new
FNDA:5,_RNvMs_NtCseSBbdzXc5r3_21vm_cross_arch_support13pattern_cacheNtB4_17PatternMatchCache5clear
FNDA:1,_RNvMs_NtCseSBbdzXc5r3_21vm_cross_arch_support13pattern_cacheNtB4_17PatternMatchCache5stats
FNDA:1,_RNvMs_NtCseSBbdzXc5r3_21vm_cross_arch_support13pattern_cacheNtB4_17PatternMatchCache8hit_rate
FNDA:2,_RNvMs_NtCseSBbdzXc5r3_21vm_cross_arch_support13pattern_cacheNtB4_17PatternMatchCache8is_empty
FNDA:1,_RNvNtNtCseSBbdzXc5r3_21vm_cross_arch_support13pattern_cache5testss_16test_clear_cache
FNDA:1,_RNvNtNtCseSBbdzXc5r3_21vm_cross_arch_support13pattern_cache5testss_19test_cache_hit_rate
FNDA:1,_RNvNtNtCseSBbdzXc5r3_21vm_cross_arch_support13pattern_cache5testss_20test_invalidate_arch
FNDA:1,_RNvNtNtCseSBbdzXc5r3_21vm_cross_arch_support13pattern_cache5testss_25test_riscv_load_detection
FNDA:1,_RNvNtNtCseSBbdzXc5r3_21vm_cross_arch_support13pattern_cache5testss_26test_pattern_features_hash
FNDA:1,_RNvNtNtCseSBbdzXc5r3_21vm_cross_arch_support13pattern_cache5testss_26test_riscv_store_detection
FNDA:1,_RNvNtNtCseSBbdzXc5r3_21vm_cross_arch_support13pattern_cache5testss_27test_pattern_cache_creation
FNDA:1,_RNvNtNtCseSBbdzXc5r3_21vm_cross_arch_support13pattern_cache5testss_27test_riscv_branch_detection
FNDA:1,_RNvNtNtCseSBbdzXc5r3_21vm_cross_arch_support13pattern_cache5testss_31test_riscv_arithmetic_detection
FNDA:1,_RNvNtNtCseSBbdzXc5r3_21vm_cross_arch_support13pattern_cache5testss_31test_riscv_compressed_detection
FNDA:2,_RNCNvMs_NtCseSBbdzXc5r3_21vm_cross_arch_support13pattern_cacheNtB6_17PatternMatchCache15invalidate_arch0B8_
FNF:33
FNH:33
DA:55,2
DA:56,2
DA:57,2
DA:58,2
DA:59,2
DA:60,2
DA:61,2
DA:62,2
DA:63,2
DA:64,2
DA:65,2
DA:66,2
DA:67,2
DA:68,2
DA:123,93
DA:124,93
DA:125,93
DA:126,93
DA:127,93
DA:128,93
DA:129,93
DA:130,93
DA:131,93
DA:134,4879
DA:135,4879
DA:138,4879
DA:139,4482
DA:140,4482
DA:141,397
DA:144,397
DA:145,397
DA:148,397
DA:149,1
DA:151,396
DA:152,396
DA:153,396
DA:157,397
DA:158,397
DA:159,397
DA:160,397
DA:161,397
DA:162,397
DA:163,397
DA:167,397
DA:169,0
DA:170,0
DA:171,0
DA:172,0
DA:173,397
DA:175,397
DA:176,397
DA:177,4879
DA:180,396
DA:182,396
DA:183,396
DA:184,396
DA:185,396
DA:186,396
DA:187,396
DA:188,396
DA:189,396
DA:192,396
DA:195,396
DA:197,396
DA:198,396
DA:199,396
DA:200,396
DA:201,396
DA:202,396
DA:203,396
DA:204,396
DA:205,396
DA:206,396
DA:207,396
DA:208,396
DA:209,396
DA:212,792
DA:213,792
DA:214,0
DA:215,792
DA:218,792
DA:219,792
DA:220,792
DA:221,14
DA:222,778
DA:223,0
DA:226,778
DA:227,778
DA:228,20
DA:229,258
DA:230,730
DA:232,0
DA:234,730
DA:235,792
DA:238,792
DA:239,792
DA:240,0
DA:241,792
DA:244,792
DA:245,792
DA:246,792
DA:247,10
DA:248,782
DA:249,0
DA:252,782
DA:253,782
DA:254,16
DA:255,766
DA:257,0
DA:259,766
DA:260,792
DA:263,792
DA:264,792
DA:265,0
DA:266,792
DA:269,792
DA:270,792
DA:272,792
DA:273,18
DA:274,774
DA:275,0
DA:278,774
DA:279,774
DA:280,574
DA:281,738
DA:283,0
DA:285,738
DA:286,792
DA:289,792
DA:290,792
DA:291,0
DA:292,792
DA:295,792
DA:296,792
DA:297,792
DA:298,32
DA:299,760
DA:300,0
DA:303,760
DA:304,760
DA:305,760
DA:306,136
DA:308,624
DA:310,0
DA:312,624
DA:313,792
DA:316,396
DA:317,396
DA:318,0
DA:319,396
DA:322,396
DA:323,396
DA:324,396
DA:326,16
DA:327,16
DA:328,16
DA:330,9
DA:331,7
DA:332,0
DA:333,380
DA:334,0
DA:337,387
DA:338,387
DA:339,332
DA:340,32
DA:342,355
DA:344,0
DA:346,355
DA:347,396
DA:350,396
DA:351,396
DA:352,0
DA:353,396
DA:356,396
DA:357,396
DA:358,396
DA:359,1
DA:360,395
DA:361,0
DA:364,395
DA:366,395
DA:367,56
DA:368,339
DA:369,0
DA:371,339
DA:372,396
DA:375,396
DA:376,396
DA:377,0
DA:378,396
DA:381,396
DA:382,396
DA:383,396
DA:384,2
DA:385,394
DA:386,0
DA:389,394
DA:390,394
DA:391,75
DA:392,346
DA:394,0
DA:396,346
DA:397,396
DA:400,396
DA:401,396
DA:402,0
DA:403,396
DA:406,396
DA:407,396
DA:408,396
DA:411,396
DA:412,396
DA:413,0
DA:414,396
DA:417,396
DA:418,396
DA:419,396
DA:420,396
DA:422,396
DA:423,41
DA:424,355
DA:425,27
DA:426,328
DA:427,79
DA:429,249
DA:431,396
DA:434,397
DA:435,397
DA:437,18
DA:438,4
DA:439,14
DA:440,4
DA:441,10
DA:442,1
DA:443,9
DA:444,2
DA:445,7
DA:446,7
DA:447,0
DA:448,0
DA:449,0
DA:450,0
DA:452,0
DA:456,348
DA:457,26
DA:458,322
DA:459,9
DA:460,313
DA:461,25
DA:462,288
DA:463,53
DA:464,235
DA:465,47
DA:466,188
DA:467,3
DA:469,185
DA:473,31
DA:474,1
DA:475,30
DA:476,0
DA:477,30
DA:478,18
DA:479,12
DA:480,0
DA:482,12
DA:485,0
DA:487,397
DA:490,397
DA:492,397
DA:493,397
DA:496,4879
DA:497,4879
DA:498,4879
DA:499,4879
DA:500,4879
DA:503,1
DA:504,2
DA:505,1
DA:508,5
DA:509,5
DA:510,5
DA:511,5
DA:514,5
DA:515,5
DA:516,5
DA:519,2
DA:520,2
DA:521,2
DA:524,1
DA:525,1
DA:526,1
DA:527,1
DA:529,1
DA:530,0
DA:532,1
DA:534,1
DA:537,1
DA:538,1
DA:539,1
DA:540,1
DA:541,1
DA:542,1
DA:543,1
DA:544,1
DA:573,1
DA:574,1
DA:575,1
DA:576,1
DA:577,1
DA:580,1
DA:581,1
DA:584,1
DA:585,1
DA:587,1
DA:588,1
DA:589,1
DA:590,1
DA:593,1
DA:594,1
DA:597,1
DA:598,1
DA:600,1
DA:601,1
DA:602,1
DA:603,1
DA:606,1
DA:607,1
DA:610,1
DA:611,1
DA:613,1
DA:614,1
DA:615,1
DA:616,1
DA:619,1
DA:620,1
DA:623,1
DA:624,1
DA:626,1
DA:627,1
DA:628,1
DA:629,1
DA:630,1
DA:633,1
DA:634,1
DA:638,1
DA:639,1
DA:641,1
DA:642,1
DA:643,1
DA:644,1
DA:647,1
DA:648,1
DA:651,1
DA:652,1
DA:653,1
DA:656,1
DA:658,1
DA:659,1
DA:660,1
DA:661,1
DA:662,1
DA:665,1
DA:666,1
DA:667,1
DA:668,1
DA:669,1
DA:670,1
DA:671,1
DA:672,1
DA:673,1
DA:674,1
DA:675,1
DA:676,1
DA:677,1
DA:679,1
DA:680,1
DA:681,1
DA:684,1
DA:685,1
DA:688,1
DA:689,1
DA:690,1
DA:691,1
DA:693,1
DA:696,1
DA:697,1
DA:698,1
DA:701,1
DA:702,1
DA:704,1
DA:705,1
DA:706,1
DA:708,1
DA:710,1
DA:711,1
DA:712,1
DA:713,1
BRF:0
BRH:0
LF:398
LH:361
end_of_record
SF:/Users/didi/Desktop/vm/vm-cross-arch-support/src/register.rs
FN:144,_RNvMs0_NtCseSBbdzXc5r3_21vm_cross_arch_support8registerNtB5_12RegisterInfo17with_caller_saved
FN:206,_RNvMs1_NtCseSBbdzXc5r3_21vm_cross_arch_support8registerNtB5_11RegisterSet12add_register
FN:222,_RNvMs1_NtCseSBbdzXc5r3_21vm_cross_arch_support8registerNtB5_11RegisterSet12get_register
FN:250,_RNvMs1_NtCseSBbdzXc5r3_21vm_cross_arch_support8registerNtB5_11RegisterSet22get_registers_by_class
FN:281,_RNvMs1_NtCseSBbdzXc5r3_21vm_cross_arch_support8registerNtB5_11RegisterSet23get_available_registers
FN:191,_RNvMs1_NtCseSBbdzXc5r3_21vm_cross_arch_support8registerNtB5_11RegisterSet3new
FN:355,_RNvMs2_NtCseSBbdzXc5r3_21vm_cross_arch_support8registerNtB5_14RegisterMapper12map_register
FN:460,_RNvMs2_NtCseSBbdzXc5r3_21vm_cross_arch_support8registerNtB5_14RegisterMapper13is_compatible
FN:484,_RNvMs2_NtCseSBbdzXc5r3_21vm_cross_arch_support8registerNtB5_14RegisterMapper17allocate_register
FN:430,_RNvMs2_NtCseSBbdzXc5r3_21vm_cross_arch_support8registerNtB5_14RegisterMapper20find_target_register
FN:338,_RNvMs2_NtCseSBbdzXc5r3_21vm_cross_arch_support8registerNtB5_14RegisterMapper3new
FN:626,_RNvMs3_NtCseSBbdzXc5r3_21vm_cross_arch_support8registerNtB5_17RegisterAllocator14spill_register
FN:593,_RNvMs3_NtCseSBbdzXc5r3_21vm_cross_arch_support8registerNtB5_17RegisterAllocator21initialize_free_lists
FN:528,_RNvMs3_NtCseSBbdzXc5r3_21vm_cross_arch_support8registerNtB5_17RegisterAllocator3new
FN:566,_RNvMs3_NtCseSBbdzXc5r3_21vm_cross_arch_support8registerNtB5_17RegisterAllocator4free
FN:541,_RNvMs3_NtCseSBbdzXc5r3_21vm_cross_arch_support8registerNtB5_17RegisterAllocator8allocate
FN:233,_RNCNvMs1_NtCseSBbdzXc5r3_21vm_cross_arch_support8registerNtB7_11RegisterSet12get_register0B9_
FN:34,_RNvXNtCseSBbdzXc5r3_21vm_cross_arch_support8registerNtNtCsbkbnPoCG8ZW_7vm_core5error7VmErrorINtNtCskzPJi2J8k3N_4core7convert4FromNtB2_13RegisterErrorE4from
FN:247,_RNCNvMs1_NtCseSBbdzXc5r3_21vm_cross_arch_support8registerNtB7_11RegisterSet20get_register_by_name0B9_
FN:164,_RNvMs0_NtCseSBbdzXc5r3_21vm_cross_arch_support8registerNtB5_12RegisterInfo10with_alias
FN:159,_RNvMs0_NtCseSBbdzXc5r3_21vm_cross_arch_support8registerNtB5_12RegisterInfo13with_reserved
FN:154,_RNvMs0_NtCseSBbdzXc5r3_21vm_cross_arch_support8registerNtB5_12RegisterInfo13with_volatile
FN:169,_RNvMs0_NtCseSBbdzXc5r3_21vm_cross_arch_support8registerNtB5_12RegisterInfo16with_overlapping
FN:149,_RNvMs0_NtCseSBbdzXc5r3_21vm_cross_arch_support8registerNtB5_12RegisterInfo17with_callee_saved
FN:236,_RNvMs1_NtCseSBbdzXc5r3_21vm_cross_arch_support8registerNtB5_11RegisterSet20get_register_by_name
FN:289,_RNvMs1_NtCseSBbdzXc5r3_21vm_cross_arch_support8registerNtB5_11RegisterSet22with_virtual_registers
FN:377,_RNvMs2_NtCseSBbdzXc5r3_21vm_cross_arch_support8registerNtB5_14RegisterMapper11reverse_map
FN:382,_RNvMs2_NtCseSBbdzXc5r3_21vm_cross_arch_support8registerNtB5_14RegisterMapper12is_allocated
FN:401,_RNvMs2_NtCseSBbdzXc5r3_21vm_cross_arch_support8registerNtB5_14RegisterMapper13free_register
FN:387,_RNvMs2_NtCseSBbdzXc5r3_21vm_cross_arch_support8registerNtB5_14RegisterMapper16reserve_register
FN:396,_RNvMs2_NtCseSBbdzXc5r3_21vm_cross_arch_support8registerNtB5_14RegisterMapper19release_reservation
FN:413,_RNvMs2_NtCseSBbdzXc5r3_21vm_cross_arch_support8registerNtB5_14RegisterMapper8free_all
FN:420,_RNvMs2_NtCseSBbdzXc5r3_21vm_cross_arch_support8registerNtB5_14RegisterMapper9get_stats
FN:586,_RNvMs3_NtCseSBbdzXc5r3_21vm_cross_arch_support8registerNtB5_17RegisterAllocator14set_spill_cost
FN:579,_RNvMs3_NtCseSBbdzXc5r3_21vm_cross_arch_support8registerNtB5_17RegisterAllocator9mark_used
FN:103,_RNvXs_NtCseSBbdzXc5r3_21vm_cross_arch_support8registerNtB4_12RegisterTypeNtNtCskzPJi2J8k3N_4core7default7Default7default
FN:611,_RNCNvMs3_NtCseSBbdzXc5r3_21vm_cross_arch_support8registerNtB7_17RegisterAllocator21initialize_free_listss_0B9_
FN:124,_RINvMs0_NtCseSBbdzXc5r3_21vm_cross_arch_support8registerNtB6_12RegisterInfo3newNtNtCsganj50Cd8Gx_5alloc6string6StringEB8_
FN:630,_RNCNvMs3_NtCseSBbdzXc5r3_21vm_cross_arch_support8registerNtB7_17RegisterAllocator14spill_register0B9_
FN:640,_RNCNvMs3_NtCseSBbdzXc5r3_21vm_cross_arch_support8registerNtB7_17RegisterAllocator14spill_registers_0B9_
FN:284,_RNCNvMs1_NtCseSBbdzXc5r3_21vm_cross_arch_support8registerNtB7_11RegisterSet23get_available_registers0B9_
FN:659,_RNvNtNtCseSBbdzXc5r3_21vm_cross_arch_support8register5tests24create_test_register_set
FN:678,_RNvNtNtCseSBbdzXc5r3_21vm_cross_arch_support8register5testss_21test_register_mapping
FN:691,_RNvNtNtCseSBbdzXc5r3_21vm_cross_arch_support8register5testss_24test_register_allocation
FN:706,_RNvNtNtCseSBbdzXc5r3_21vm_cross_arch_support8register5testss_42test_register_error_to_vm_error_conversion
FNDA:48,_RNvMs0_NtCseSBbdzXc5r3_21vm_cross_arch_support8registerNtB5_12RegisterInfo17with_caller_saved
FNDA:48,_RNvMs1_NtCseSBbdzXc5r3_21vm_cross_arch_support8registerNtB5_11RegisterSet12add_register
FNDA:1,_RNvMs1_NtCseSBbdzXc5r3_21vm_cross_arch_support8registerNtB5_11RegisterSet12get_register
FNDA:9,_RNvMs1_NtCseSBbdzXc5r3_21vm_cross_arch_support8registerNtB5_11RegisterSet22get_registers_by_class
FNDA:9,_RNvMs1_NtCseSBbdzXc5r3_21vm_cross_arch_support8registerNtB5_11RegisterSet23get_available_registers
FNDA:3,_RNvMs1_NtCseSBbdzXc5r3_21vm_cross_arch_support8registerNtB5_11RegisterSet3new
FNDA:2,_RNvMs2_NtCseSBbdzXc5r3_21vm_cross_arch_support8registerNtB5_14RegisterMapper12map_register
FNDA:1,_RNvMs2_NtCseSBbdzXc5r3_21vm_cross_arch_support8registerNtB5_14RegisterMapper13is_compatible
FNDA:1,_RNvMs2_NtCseSBbdzXc5r3_21vm_cross_arch_support8registerNtB5_14RegisterMapper17allocate_register
FNDA:1,_RNvMs2_NtCseSBbdzXc5r3_21vm_cross_arch_support8registerNtB5_14RegisterMapper20find_target_register
FNDA:1,_RNvMs2_NtCseSBbdzXc5r3_21vm_cross_arch_support8registerNtB5_14RegisterMapper3new
FNDA:0,_RNvMs3_NtCseSBbdzXc5r3_21vm_cross_arch_support8registerNtB5_17RegisterAllocator14spill_register
FNDA:1,_RNvMs3_NtCseSBbdzXc5r3_21vm_cross_arch_support8registerNtB5_17RegisterAllocator21initialize_free_lists
FNDA:1,_RNvMs3_NtCseSBbdzXc5r3_21vm_cross_arch_support8registerNtB5_17RegisterAllocator3new
FNDA:1,_RNvMs3_NtCseSBbdzXc5r3_21vm_cross_arch_support8registerNtB5_17RegisterAllocator4free
FNDA:3,_RNvMs3_NtCseSBbdzXc5r3_21vm_cross_arch_support8registerNtB5_17RegisterAllocator8allocate
FNDA:1,_RNCNvMs1_NtCseSBbdzXc5r3_21vm_cross_arch_support8registerNtB7_11RegisterSet12get_register0B9_
FNDA:7,_RNvXNtCseSBbdzXc5r3_21vm_cross_arch_support8registerNtNtCsbkbnPoCG8ZW_7vm_core5error7VmErrorINtNtCskzPJi2J8k3N_4core7convert4FromNtB2_13RegisterErrorE4from
FNDA:0,_RNCNvMs1_NtCseSBbdzXc5r3_21vm_cross_arch_support8registerNtB7_11RegisterSet20get_register_by_name0B9_
FNDA:0,_RNvMs0_NtCseSBbdzXc5r3_21vm_cross_arch_support8registerNtB5_12RegisterInfo10with_alias
FNDA:0,_RNvMs0_NtCseSBbdzXc5r3_21vm_cross_arch_support8registerNtB5_12RegisterInfo13with_reserved
FNDA:0,_RNvMs0_NtCseSBbdzXc5r3_21vm_cross_arch_support8registerNtB5_12RegisterInfo13with_volatile
FNDA:0,_RNvMs0_NtCseSBbdzXc5r3_21vm_cross_arch_support8registerNtB5_12RegisterInfo16with_overlapping
FNDA:0,_RNvMs0_NtCseSBbdzXc5r3_21vm_cross_arch_support8registerNtB5_12RegisterInfo17with_callee_saved
FNDA:0,_RNvMs1_NtCseSBbdzXc5r3_21vm_cross_arch_support8registerNtB5_11RegisterSet20get_register_by_name
FNDA:0,_RNvMs1_NtCseSBbdzXc5r3_21vm_cross_arch_support8registerNtB5_11RegisterSet22with_virtual_registers
FNDA:0,_RNvMs2_NtCseSBbdzXc5r3_21vm_cross_arch_support8registerNtB5_14RegisterMapper11reverse_map
FNDA:0,_RNvMs2_NtCseSBbdzXc5r3_21vm_cross_arch_support8registerNtB5_14RegisterMapper12is_allocated
FNDA:0,_RNvMs2_NtCseSBbdzXc5r3_21vm_cross_arch_support8registerNtB5_14RegisterMapper13free_register
FNDA:0,_RNvMs2_NtCseSBbdzXc5r3_21vm_cross_arch_support8registerNtB5_14RegisterMapper16reserve_register
FNDA:0,_RNvMs2_NtCseSBbdzXc5r3_21vm_cross_arch_support8registerNtB5_14RegisterMapper19release_reservation
FNDA:0,_RNvMs2_NtCseSBbdzXc5r3_21vm_cross_arch_support8registerNtB5_14RegisterMapper8free_all
FNDA:0,_RNvMs2_NtCseSBbdzXc5r3_21vm_cross_arch_support8registerNtB5_14RegisterMapper9get_stats
FNDA:0,_RNvMs3_NtCseSBbdzXc5r3_21vm_cross_arch_support8registerNtB5_17RegisterAllocator14set_spill_cost
FNDA:0,_RNvMs3_NtCseSBbdzXc5r3_21vm_cross_arch_support8registerNtB5_17RegisterAllocator9mark_used
FNDA:0,_RNvXs_NtCseSBbdzXc5r3_21vm_cross_arch_support8registerNtB4_12RegisterTypeNtNtCskzPJi2J8k3N_4core7default7Default7default
FNDA:16,_RNCNvMs3_NtCseSBbdzXc5r3_21vm_cross_arch_support8registerNtB7_17RegisterAllocator21initialize_free_listss_0B9_
FNDA:48,_RINvMs0_NtCseSBbdzXc5r3_21vm_cross_arch_support8registerNtB6_12RegisterInfo3newNtNtCsganj50Cd8Gx_5alloc6string6StringEB8_
FNDA:0,_RNCNvMs3_NtCseSBbdzXc5r3_21vm_cross_arch_support8registerNtB7_17RegisterAllocator14spill_register0B9_
FNDA:0,_RNCNvMs3_NtCseSBbdzXc5r3_21vm_cross_arch_support8registerNtB7_17RegisterAllocator14spill_registers_0B9_
FNDA:32,_RNCNvMs1_NtCseSBbdzXc5r3_21vm_cross_arch_support8registerNtB7_11RegisterSet23get_available_registers0B9_
FNDA:3,_RNvNtNtCseSBbdzXc5r3_21vm_cross_arch_support8register5tests24create_test_register_set
FNDA:1,_RNvNtNtCseSBbdzXc5r3_21vm_cross_arch_support8register5testss_21test_register_mapping
FNDA:1,_RNvNtNtCseSBbdzXc5r3_21vm_cross_arch_support8register5testss_24test_register_allocation
FNDA:1,_RNvNtNtCseSBbdzXc5r3_21vm_cross_arch_support8register5testss_42test_register_error_to_vm_error_conversion
FNF:45
FNH:24
DA:34,7
DA:35,7
DA:36,1
DA:37,1
DA:38,1
DA:39,1
DA:40,1
DA:41,1
DA:42,1
DA:43,1
DA:44,1
DA:45,1
DA:46,1
DA:47,1
DA:48,1
DA:49,1
DA:50,1
DA:51,1
DA:53,1
DA:54,1
DA:55,1
DA:56,1
DA:57,1
DA:58,1
DA:60,1
DA:61,1
DA:62,1
DA:63,1
DA:64,1
DA:65,1
DA:66,1
DA:67,1
DA:68,1
DA:69,1
DA:71,1
DA:72,1
DA:73,1
DA:74,1
DA:76,7
DA:103,0
DA:104,0
DA:105,0
DA:124,48
DA:125,48
DA:126,48
DA:127,48
DA:128,48
DA:129,48
DA:130,48
DA:131,48
DA:132,48
DA:133,48
DA:134,48
DA:135,48
DA:136,48
DA:137,48
DA:138,48
DA:139,48
DA:140,48
DA:141,48
DA:142,48
DA:144,48
DA:145,48
DA:146,48
DA:147,48
DA:149,0
DA:150,0
DA:151,0
DA:152,0
DA:154,0
DA:155,0
DA:156,0
DA:157,0
DA:159,0
DA:160,0
DA:161,0
DA:162,0
DA:164,0
DA:165,0
DA:166,0
DA:167,0
DA:169,0
DA:170,0
DA:171,0
DA:172,0
DA:191,3
DA:192,3
DA:193,3
DA:194,3
DA:195,3
DA:196,3
DA:197,3
DA:198,3
DA:199,3
DA:200,3
DA:201,3
DA:202,3
DA:203,3
DA:204,3
DA:206,48
DA:207,48
DA:208,48
DA:209,0
DA:210,0
DA:211,0
DA:212,0
DA:213,0
DA:214,0
DA:215,0
DA:216,0
DA:217,0
DA:218,0
DA:220,48
DA:222,1
DA:223,1
DA:224,1
DA:225,1
DA:226,1
DA:227,1
DA:228,1
DA:229,1
DA:230,1
DA:231,1
DA:232,1
DA:233,1
DA:234,1
DA:236,0
DA:237,0
DA:238,0
DA:239,0
DA:240,0
DA:241,0
DA:242,0
DA:243,0
DA:244,0
DA:245,0
DA:246,0
DA:247,0
DA:248,0
DA:250,9
DA:252,9
DA:253,2
DA:254,1
DA:255,1
DA:256,0
DA:257,1
DA:258,1
DA:259,1
DA:260,1
DA:261,1
DA:264,9
DA:266,9
DA:267,2
DA:268,1
DA:269,1
DA:270,0
DA:271,1
DA:272,1
DA:273,1
DA:274,1
DA:275,1
DA:278,9
DA:279,9
DA:281,9
DA:282,9
DA:283,9
DA:284,32
DA:285,9
DA:286,9
DA:289,0
DA:290,0
DA:293,0
DA:294,0
DA:295,0
DA:296,0
DA:297,0
DA:298,0
DA:299,0
DA:300,0
DA:301,0
DA:302,0
DA:304,0
DA:305,0
DA:338,1
DA:339,1
DA:340,1
DA:341,1
DA:342,1
DA:343,1
DA:344,1
DA:345,1
DA:346,1
DA:347,1
DA:348,1
DA:349,1
DA:350,1
DA:351,1
DA:352,1
DA:355,2
DA:357,2
DA:358,1
DA:359,1
DA:362,1
DA:363,1
DA:364,1
DA:365,1
DA:368,1
DA:371,1
DA:373,1
DA:374,2
DA:377,0
DA:378,0
DA:379,0
DA:382,0
DA:383,0
DA:384,0
DA:387,0
DA:388,0
DA:389,0
DA:390,0
DA:391,0
DA:392,0
DA:393,0
DA:396,0
DA:397,0
DA:398,0
DA:401,0
DA:402,0
DA:403,0
DA:404,0
DA:405,0
DA:406,0
DA:408,0
DA:410,0
DA:413,0
DA:414,0
DA:415,0
DA:416,0
DA:417,0
DA:420,0
DA:421,0
DA:422,0
DA:423,0
DA:424,0
DA:425,0
DA:426,0
DA:427,0
DA:430,1
DA:431,1
DA:433,1
DA:434,0
DA:435,1
DA:438,1
DA:439,1
DA:440,1
DA:441,1
DA:443,1
DA:444,0
DA:448,0
DA:449,0
DA:450,0
DA:452,0
DA:453,0
DA:456,0
DA:457,1
DA:460,1
DA:462,1
DA:463,1
DA:465,1
DA:467,0
DA:470,0
DA:471,0
DA:474,0
DA:475,0
DA:477,0
DA:478,0
DA:479,0
DA:481,1
DA:484,1
DA:485,1
DA:486,1
DA:487,1
DA:488,1
DA:489,1
DA:490,0
DA:491,1
DA:493,1
DA:494,1
DA:495,1
DA:497,1
DA:498,1
DA:528,1
DA:529,1
DA:530,1
DA:531,1
DA:532,1
DA:533,1
DA:534,1
DA:536,1
DA:537,1
DA:538,1
DA:541,3
DA:542,3
DA:543,3
DA:544,3
DA:545,3
DA:546,3
DA:547,3
DA:548,3
DA:550,3
DA:551,3
DA:552,3
DA:553,3
DA:554,3
DA:555,3
DA:556,3
DA:557,3
DA:558,3
DA:561,0
DA:563,3
DA:566,1
DA:567,1
DA:568,1
DA:569,1
DA:570,0
DA:571,1
DA:572,1
DA:574,0
DA:576,1
DA:579,0
DA:580,0
DA:581,0
DA:582,0
DA:583,0
DA:586,0
DA:587,0
DA:588,0
DA:589,0
DA:590,0
DA:593,1
DA:594,8
DA:595,1
DA:596,1
DA:597,1
DA:598,1
DA:599,1
DA:600,1
DA:601,1
DA:602,1
DA:604,8
DA:605,8
DA:606,8
DA:609,8
DA:610,8
DA:611,16
DA:613,16
DA:614,16
DA:617,0
DA:619,16
DA:620,8
DA:621,8
DA:623,1
DA:626,0
DA:627,0
DA:628,0
DA:629,0
DA:630,0
DA:631,0
DA:633,0
DA:634,0
DA:635,0
DA:638,0
DA:639,0
DA:640,0
DA:641,0
DA:642,0
DA:643,0
DA:644,0
DA:645,0
DA:647,0
DA:648,0
DA:649,0
DA:651,0
DA:652,0
DA:659,3
DA:660,3
DA:663,51
DA:664,48
DA:665,48
DA:666,48
DA:667,48
DA:668,48
DA:669,48
DA:670,48
DA:671,48
DA:672,48
DA:674,3
DA:675,3
DA:678,1
DA:679,1
DA:680,1
DA:681,1
DA:683,1
DA:684,1
DA:686,1
DA:687,1
DA:688,1
DA:691,1
DA:692,1
DA:693,1
DA:695,1
DA:696,1
DA:698,1
DA:700,1
DA:701,1
DA:702,1
DA:703,1
DA:706,1
DA:710,1
DA:711,1
DA:712,1
DA:715,1
DA:716,1
DA:717,1
DA:720,1
DA:721,1
DA:722,1
DA:725,1
DA:726,1
DA:727,1
DA:730,1
DA:731,1
DA:732,1
DA:735,1
DA:736,1
DA:737,1
DA:738,1
DA:741,1
DA:742,1
DA:743,1
DA:744,1
BRF:0
BRH:0
LF:447
LH:292
end_of_record
SF:/Users/didi/Desktop/vm/vm-cross-arch-support/src/translation_pipeline.rs
FN:883,_RNCNvMs0_NtCseSBbdzXc5r3_21vm_cross_arch_support20translation_pipelineNtB7_28CrossArchTranslationPipeline24translate_parallel_batch0B9_
FN:326,_RNCNvMs0_NtCseSBbdzXc5r3_21vm_cross_arch_support20translation_pipelineNtB7_28CrossArchTranslationPipeline25translate_blocks_parallel0B9_
FN:2127,_RNCNvNtNtCseSBbdzXc5r3_21vm_cross_arch_support20translation_pipeline5testss_28test_concurrent_cache_access0B7_
FN:1588,_RNCNvNtNtCseSBbdzXc5r3_21vm_cross_arch_support20translation_pipeline5testss_34test_concurrent_translation_safety0B7_
FN:3101,_RNCNvNtNtCseSBbdzXc5r3_21vm_cross_arch_support20translation_pipeline5testss_42test_round16_concurrent_translation_stress0B7_
FN:367,_RNvMs0_NtCseSBbdzXc5r3_21vm_cross_arch_support20translation_pipelineNtB5_28CrossArchTranslationPipeline33translate_block_parallel_internal
FN:992,_RNvXs1_NtCseSBbdzXc5r3_21vm_cross_arch_support20translation_pipelineNtB5_28CrossArchTranslationPipelineNtNtCskzPJi2J8k3N_4core7default7Default7default
FN:170,_RNvXs_NtCseSBbdzXc5r3_21vm_cross_arch_support20translation_pipelineNtB4_20RegisterMappingCacheNtNtCskzPJi2J8k3N_4core7default7Default7default
FN:108,_RNvMNtCseSBbdzXc5r3_21vm_cross_arch_support20translation_pipelineNtB2_20RegisterMappingCache14map_or_compute
FN:130,_RNvMNtCseSBbdzXc5r3_21vm_cross_arch_support20translation_pipelineNtB2_20RegisterMappingCache15compute_mapping
FN:55,_RNvMNtCseSBbdzXc5r3_21vm_cross_arch_support20translation_pipelineNtB2_20RegisterMappingCache3new
FN:156,_RNvMNtCseSBbdzXc5r3_21vm_cross_arch_support20translation_pipelineNtB2_20RegisterMappingCache8hit_rate
FN:727,_RNvMs0_NtCseSBbdzXc5r3_21vm_cross_arch_support20translation_pipelineNtB5_28CrossArchTranslationPipeline12map_register
FN:960,_RNvMs0_NtCseSBbdzXc5r3_21vm_cross_arch_support20translation_pipelineNtB5_28CrossArchTranslationPipeline14cache_hit_rate
FN:749,_RNvMs0_NtCseSBbdzXc5r3_21vm_cross_arch_support20translation_pipelineNtB5_28CrossArchTranslationPipeline14reg_id_from_u8
FN:243,_RNvMs0_NtCseSBbdzXc5r3_21vm_cross_arch_support20translation_pipelineNtB5_28CrossArchTranslationPipeline15translate_block
FN:785,_RNvMs0_NtCseSBbdzXc5r3_21vm_cross_arch_support20translation_pipelineNtB5_28CrossArchTranslationPipeline16relocate_address
FN:495,_RNvMs0_NtCseSBbdzXc5r3_21vm_cross_arch_support20translation_pipelineNtB5_28CrossArchTranslationPipeline16translate_opcode
FN:776,_RNvMs0_NtCseSBbdzXc5r3_21vm_cross_arch_support20translation_pipelineNtB5_28CrossArchTranslationPipeline18get_immediate_bits
FN:534,_RNvMs0_NtCseSBbdzXc5r3_21vm_cross_arch_support20translation_pipelineNtB5_28CrossArchTranslationPipeline18get_opcode_mapping
FN:803,_RNvMs0_NtCseSBbdzXc5r3_21vm_cross_arch_support20translation_pipelineNtB5_28CrossArchTranslationPipeline18translate_operands
FN:758,_RNvMs0_NtCseSBbdzXc5r3_21vm_cross_arch_support20translation_pipelineNtB5_28CrossArchTranslationPipeline21adjust_immediate_size
FN:393,_RNvMs0_NtCseSBbdzXc5r3_21vm_cross_arch_support20translation_pipelineNtB5_28CrossArchTranslationPipeline21translate_instruction
FN:973,_RNvMs0_NtCseSBbdzXc5r3_21vm_cross_arch_support20translation_pipelineNtB5_28CrossArchTranslationPipeline23avg_translation_time_ns
FN:515,_RNvMs0_NtCseSBbdzXc5r3_21vm_cross_arch_support20translation_pipelineNtB5_28CrossArchTranslationPipeline23translate_opcode_static
FN:426,_RNvMs0_NtCseSBbdzXc5r3_21vm_cross_arch_support20translation_pipelineNtB5_28CrossArchTranslationPipeline24is_translation_supported
FN:872,_RNvMs0_NtCseSBbdzXc5r3_21vm_cross_arch_support20translation_pipelineNtB5_28CrossArchTranslationPipeline24translate_parallel_batch
FN:305,_RNvMs0_NtCseSBbdzXc5r3_21vm_cross_arch_support20translation_pipelineNtB5_28CrossArchTranslationPipeline25translate_blocks_parallel
FN:673,_RNvMs0_NtCseSBbdzXc5r3_21vm_cross_arch_support20translation_pipelineNtB5_28CrossArchTranslationPipeline25translate_operands_static
FN:443,_RNvMs0_NtCseSBbdzXc5r3_21vm_cross_arch_support20translation_pipelineNtB5_28CrossArchTranslationPipeline27generate_target_instruction
FN:888,_RNvMs0_NtCseSBbdzXc5r3_21vm_cross_arch_support20translation_pipelineNtB5_28CrossArchTranslationPipeline27translate_instruction_batch
FN:921,_RNvMs0_NtCseSBbdzXc5r3_21vm_cross_arch_support20translation_pipelineNtB5_28CrossArchTranslationPipeline33generate_target_instruction_batch
FN:469,_RNvMs0_NtCseSBbdzXc5r3_21vm_cross_arch_support20translation_pipelineNtB5_28CrossArchTranslationPipeline34generate_target_instruction_static
FN:233,_RNvMs0_NtCseSBbdzXc5r3_21vm_cross_arch_support20translation_pipelineNtB5_28CrossArchTranslationPipeline3new
FN:985,_RNvMs0_NtCseSBbdzXc5r3_21vm_cross_arch_support20translation_pipelineNtB5_28CrossArchTranslationPipeline5clear
FN:955,_RNvMs0_NtCseSBbdzXc5r3_21vm_cross_arch_support20translation_pipelineNtB5_28CrossArchTranslationPipeline5stats
FN:947,_RNvMs0_NtCseSBbdzXc5r3_21vm_cross_arch_support20translation_pipelineNtB5_28CrossArchTranslationPipeline6warmup
FN:22,_RNvNtCseSBbdzXc5r3_21vm_cross_arch_support20translation_pipeline26cache_arch_to_pattern_arch
FN:3666,_RNCNCNvNtNtCseSBbdzXc5r3_21vm_cross_arch_support20translation_pipeline5testss_45test_round17_large_scale_parallel_performance00B9_
FN:3144,_RNCNCNvNtNtCseSBbdzXc5r3_21vm_cross_arch_support20translation_pipeline5testss_51test_round16_large_scale_parallel_block_translation00B9_
FN:813,_RNCNvMs0_NtCseSBbdzXc5r3_21vm_cross_arch_support20translation_pipelineNtB7_28CrossArchTranslationPipeline18translate_operands0B9_
FN:1482,_RNCNvNtNtCseSBbdzXc5r3_21vm_cross_arch_support20translation_pipeline5testss_28test_large_instruction_block0B7_
FN:1504,_RNCNvNtNtCseSBbdzXc5r3_21vm_cross_arch_support20translation_pipeline5testss_28test_mixed_instruction_block0B7_
FN:1639,_RNCNvNtNtCseSBbdzXc5r3_21vm_cross_arch_support20translation_pipeline5testss_34test_batch_translation_performance0B7_
FN:3500,_RNCNvNtNtCseSBbdzXc5r3_21vm_cross_arch_support20translation_pipeline5testss_39test_round17_mixed_size_blocks_parallel0B7_
FN:2085,_RNCNvNtNtCseSBbdzXc5r3_21vm_cross_arch_support20translation_pipeline5testss_40test_large_scale_translation_performance0B7_
FN:2307,_RNCNvNtNtCseSBbdzXc5r3_21vm_cross_arch_support20translation_pipeline5testss_42test_round13_batch_translation_consistency0B7_
FN:3825,_RNCNvNtNtCseSBbdzXc5r3_21vm_cross_arch_support20translation_pipeline5testss_42test_round17_complete_workflow_integration0B7_
FN:3623,_RNCNvNtNtCseSBbdzXc5r3_21vm_cross_arch_support20translation_pipeline5testss_43test_round17_all_simd_instructions_parallel0B7_
FN:2898,_RNCNvNtNtCseSBbdzXc5r3_21vm_cross_arch_support20translation_pipeline5testss_45test_round15_parallel_translation_correctness0B7_
FN:3663,_RNCNvNtNtCseSBbdzXc5r3_21vm_cross_arch_support20translation_pipeline5testss_45test_round17_large_scale_parallel_performance0B7_
FN:3691,_RNCNvNtNtCseSBbdzXc5r3_21vm_cross_arch_support20translation_pipeline5testss_45test_round17_large_scale_parallel_performances_0B7_
FN:2968,_RNCNvNtNtCseSBbdzXc5r3_21vm_cross_arch_support20translation_pipeline5testss_46test_round15_extremely_large_instruction_block0B7_
FN:3141,_RNCNvNtNtCseSBbdzXc5r3_21vm_cross_arch_support20translation_pipeline5testss_51test_round16_large_scale_parallel_block_translation0B7_
FN:3155,_RNCNvNtNtCseSBbdzXc5r3_21vm_cross_arch_support20translation_pipeline5testss_51test_round16_large_scale_parallel_block_translations_0B7_
FN:1062,_RNCNvNtNtCseSBbdzXc5r3_21vm_cross_arch_support20translation_pipeline5testss_20test_translate_block0B7_
FN:1491,_RNCNvNtNtCseSBbdzXc5r3_21vm_cross_arch_support20translation_pipeline5testss_28test_large_instruction_blocks_0B7_
FN:1513,_RNCNvNtNtCseSBbdzXc5r3_21vm_cross_arch_support20translation_pipeline5testss_28test_mixed_instruction_blocks_0B7_
FN:1006,_RNvNtNtCseSBbdzXc5r3_21vm_cross_arch_support20translation_pipeline5tests23create_test_instruction
FN:1121,_RNvNtNtCseSBbdzXc5r3_21vm_cross_arch_support20translation_pipeline5testss_10test_stats
FN:1085,_RNvNtNtCseSBbdzXc5r3_21vm_cross_arch_support20translation_pipeline5testss_17test_cache_warmup
FN:1134,_RNvNtNtCseSBbdzXc5r3_21vm_cross_arch_support20translation_pipeline5testss_17test_clear_caches
FN:1046,_RNvNtNtCseSBbdzXc5r3_21vm_cross_arch_support20translation_pipeline5testss_20test_translate_block
FN:1104,_RNvNtNtCseSBbdzXc5r3_21vm_cross_arch_support20translation_pipeline5testss_21test_register_mapping
FN:1015,_RNvNtNtCseSBbdzXc5r3_21vm_cross_arch_support20translation_pipeline5testss_22test_pipeline_creation
FN:1659,_RNvNtNtCseSBbdzXc5r3_21vm_cross_arch_support20translation_pipeline5testss_24test_cache_effectiveness
FN:1021,_RNvNtNtCseSBbdzXc5r3_21vm_cross_arch_support20translation_pipeline5testss_24test_translate_same_arch
FN:1543,_RNvNtNtCseSBbdzXc5r3_21vm_cross_arch_support20translation_pipeline5testss_24test_zero_register_index
FN:1339,_RNvNtNtCseSBbdzXc5r3_21vm_cross_arch_support20translation_pipeline5testss_25test_arm64_to_x86_logical
FN:1233,_RNvNtNtCseSBbdzXc5r3_21vm_cross_arch_support20translation_pipeline5testss_25test_x86_to_arm64_logical
FN:1524,_RNvNtNtCseSBbdzXc5r3_21vm_cross_arch_support20translation_pipeline5testss_27test_maximum_register_index
FN:1034,_RNvNtNtCseSBbdzXc5r3_21vm_cross_arch_support20translation_pipeline5testss_27test_translate_x86_to_riscv
FN:1314,_RNvNtNtCseSBbdzXc5r3_21vm_cross_arch_support20translation_pipeline5testss_28test_arm64_to_x86_arithmetic
FN:1561,_RNvNtNtCseSBbdzXc5r3_21vm_cross_arch_support20translation_pipeline5testss_28test_cache_hit_rate_tracking
FN:2116,_RNvNtNtCseSBbdzXc5r3_21vm_cross_arch_support20translation_pipeline5testss_28test_concurrent_cache_access
FN:1463,_RNvNtNtCseSBbdzXc5r3_21vm_cross_arch_support20translation_pipeline5testss_28test_empty_instruction_block
FN:1477,_RNvNtNtCseSBbdzXc5r3_21vm_cross_arch_support20translation_pipeline5testss_28test_large_instruction_block
FN:1497,_RNvNtNtCseSBbdzXc5r3_21vm_cross_arch_support20translation_pipeline5testss_28test_mixed_instruction_block
FN:1067,_RNvNtNtCseSBbdzXc5r3_21vm_cross_arch_support20translation_pipeline5testss_28test_unsupported_translation
FN:1714,_RNvNtNtCseSBbdzXc5r3_21vm_cross_arch_support20translation_pipeline5testss_28test_vector_register_mapping
FN:1206,_RNvNtNtCseSBbdzXc5r3_21vm_cross_arch_support20translation_pipeline5testss_28test_x86_to_arm64_arithmetic
FN:2025,_RNvNtNtCseSBbdzXc5r3_21vm_cross_arch_support20translation_pipeline5testss_29test_all_x86_registers_to_arm
FN:1436,_RNvNtNtCseSBbdzXc5r3_21vm_cross_arch_support20translation_pipeline5testss_29test_register_not_found_error
FN:1821,_RNvNtNtCseSBbdzXc5r3_21vm_cross_arch_support20translation_pipeline5testss_29test_x86_to_arm64_sse_compare
FN:1797,_RNvNtNtCseSBbdzXc5r3_21vm_cross_arch_support20translation_pipeline5testss_29test_x86_to_arm64_sse_logical
FN:1265,_RNvNtNtCseSBbdzXc5r3_21vm_cross_arch_support20translation_pipeline5testss_30test_arm64_to_x86_control_flow
FN:1983,_RNvNtNtCseSBbdzXc5r3_21vm_cross_arch_support20translation_pipeline5testss_30test_simd_maximum_register_v31
FN:1156,_RNvNtNtCseSBbdzXc5r3_21vm_cross_arch_support20translation_pipeline5testss_30test_x86_to_arm64_control_flow
FN:1290,_RNvNtNtCseSBbdzXc5r3_21vm_cross_arch_support20translation_pipeline5testss_31test_arm64_to_x86_data_transfer
FN:2670,_RNvNtNtCseSBbdzXc5r3_21vm_cross_arch_support20translation_pipeline5testss_31test_round15_negative_immediate
FN:1611,_RNvNtNtCseSBbdzXc5r3_21vm_cross_arch_support20translation_pipeline5testss_31test_translation_stats_tracking
FN:1182,_RNvNtNtCseSBbdzXc5r3_21vm_cross_arch_support20translation_pipeline5testss_31test_x86_to_arm64_data_transfer
FN:1972,_RNvNtNtCseSBbdzXc5r3_21vm_cross_arch_support20translation_pipeline5testss_32test_simd_maximum_register_xmm15
FN:1769,_RNvNtNtCseSBbdzXc5r3_21vm_cross_arch_support20translation_pipeline5testss_32test_x86_to_arm64_sse_arithmetic
FN:1866,_RNvNtNtCseSBbdzXc5r3_21vm_cross_arch_support20translation_pipeline5testss_33test_arm64_to_x86_neon_arithmetic
FN:1414,_RNvNtNtCseSBbdzXc5r3_21vm_cross_arch_support20translation_pipeline5testss_33test_invalid_instruction_handling
FN:1685,_RNvNtNtCseSBbdzXc5r3_21vm_cross_arch_support20translation_pipeline5testss_33test_register_cache_prepopulation
FN:2994,_RNvNtNtCseSBbdzXc5r3_21vm_cross_arch_support20translation_pipeline5testss_33test_round16_warmup_functionality
FN:1632,_RNvNtNtCseSBbdzXc5r3_21vm_cross_arch_support20translation_pipeline5testss_34test_batch_translation_performance
FN:1578,_RNvNtNtCseSBbdzXc5r3_21vm_cross_arch_support20translation_pipeline5testss_34test_concurrent_translation_safety
FN:2384,_RNvNtNtCseSBbdzXc5r3_21vm_cross_arch_support20translation_pipeline5testss_34test_round14_riscv_mov_translation
FN:2361,_RNvNtNtCseSBbdzXc5r3_21vm_cross_arch_support20translation_pipeline5testss_34test_round14_riscv_nop_translation
FN:3466,_RNvNtNtCseSBbdzXc5r3_21vm_cross_arch_support20translation_pipeline5testss_34test_round17_empty_blocks_parallel
FN:2010,_RNvNtNtCseSBbdzXc5r3_21vm_cross_arch_support20translation_pipeline5testss_35test_riscv_to_x86_register_boundary
FN:2154,_RNvNtNtCseSBbdzXc5r3_21vm_cross_arch_support20translation_pipeline5testss_35test_round13_immediate_out_of_range
FN:3305,_RNvNtNtCseSBbdzXc5r3_21vm_cross_arch_support20translation_pipeline5testss_35test_round16_all_architecture_pairs
FN:1742,_RNvNtNtCseSBbdzXc5r3_21vm_cross_arch_support20translation_pipeline5testss_35test_x86_to_arm64_sse_data_transfer
FN:1843,_RNvNtNtCseSBbdzXc5r3_21vm_cross_arch_support20translation_pipeline5testss_36test_arm64_to_x86_neon_data_transfer
FN:1890,_RNvNtNtCseSBbdzXc5r3_21vm_cross_arch_support20translation_pipeline5testss_36test_sse_neon_round_trip_translation
FN:2540,_RNvNtNtCseSBbdzXc5r3_21vm_cross_arch_support20translation_pipeline5testss_37test_round14_multiple_memory_operands
FN:2475,_RNvNtNtCseSBbdzXc5r3_21vm_cross_arch_support20translation_pipeline5testss_37test_round14_sse_logical_instructions
FN:3036,_RNvNtNtCseSBbdzXc5r3_21vm_cross_arch_support20translation_pipeline5testss_37test_round16_average_translation_time
FN:1362,_RNvNtNtCseSBbdzXc5r3_21vm_cross_arch_support20translation_pipeline5testss_37test_x86_arm64_round_trip_translation
FN:2779,_RNvNtNtCseSBbdzXc5r3_21vm_cross_arch_support20translation_pipeline5testss_38test_round15_empty_operands_edge_cases
FN:2815,_RNvNtNtCseSBbdzXc5r3_21vm_cross_arch_support20translation_pipeline5testss_38test_round15_very_large_register_index
FN:3381,_RNvNtNtCseSBbdzXc5r3_21vm_cross_arch_support20translation_pipeline5testss_38test_round17_translate_blocks_parallel
FN:1995,_RNvNtNtCseSBbdzXc5r3_21vm_cross_arch_support20translation_pipeline5testss_38test_simd_register_boundary_v16_to_v31
FN:1391,_RNvNtNtCseSBbdzXc5r3_21vm_cross_arch_support20translation_pipeline5testss_38test_unsupported_translation_direction
FN:1951,_RNvNtNtCseSBbdzXc5r3_21vm_cross_arch_support20translation_pipeline5testss_39test_round12_empty_operands_instruction
FN:2182,_RNvNtNtCseSBbdzXc5r3_21vm_cross_arch_support20translation_pipeline5testss_39test_round13_memory_operand_translation
FN:2268,_RNvNtNtCseSBbdzXc5r3_21vm_cross_arch_support20translation_pipeline5testss_39test_round13_register_mapping_all_types
FN:2330,_RNvNtNtCseSBbdzXc5r3_21vm_cross_arch_support20translation_pipeline5testss_39test_round13_translation_pipeline_stats
FN:3063,_RNvNtNtCseSBbdzXc5r3_21vm_cross_arch_support20translation_pipeline5testss_39test_round16_cache_hit_rate_calculation
FN:3485,_RNvNtNtCseSBbdzXc5r3_21vm_cross_arch_support20translation_pipeline5testss_39test_round17_mixed_size_blocks_parallel
FN:2078,_RNvNtNtCseSBbdzXc5r3_21vm_cross_arch_support20translation_pipeline5testss_40test_large_scale_translation_performance
FN:2443,_RNvNtNtCseSBbdzXc5r3_21vm_cross_arch_support20translation_pipeline5testss_40test_round14_sse_arithmetic_instructions
FN:2743,_RNvNtNtCseSBbdzXc5r3_21vm_cross_arch_support20translation_pipeline5testss_40test_round15_architecture_immediate_bits
FN:3576,_RNvNtNtCseSBbdzXc5r3_21vm_cross_arch_support20translation_pipeline5testss_40test_round17_same_arch_no_op_translation
FN:2044,_RNvNtNtCseSBbdzXc5r3_21vm_cross_arch_support20translation_pipeline5testss_41test_cache_performance_with_large_dataset
FN:2097,_RNvNtNtCseSBbdzXc5r3_21vm_cross_arch_support20translation_pipeline5testss_41test_mixed_architecture_translation_batch
FN:1934,_RNvNtNtCseSBbdzXc5r3_21vm_cross_arch_support20translation_pipeline5testss_41test_round12_invalid_instruction_handling
FN:2639,_RNvNtNtCseSBbdzXc5r3_21vm_cross_arch_support20translation_pipeline5testss_41test_round15_immediate_out_of_range_error
FN:2297,_RNvNtNtCseSBbdzXc5r3_21vm_cross_arch_support20translation_pipeline5testss_42test_round13_batch_translation_consistency
FN:2578,_RNvNtNtCseSBbdzXc5r3_21vm_cross_arch_support20translation_pipeline5testss_42test_round14_arm64_inc_dec_reverse_mapping
FN:2410,_RNvNtNtCseSBbdzXc5r3_21vm_cross_arch_support20translation_pipeline5testss_42test_round14_arm64_logical_reverse_mapping
FN:2702,_RNvNtNtCseSBbdzXc5r3_21vm_cross_arch_support20translation_pipeline5testss_42test_round15_address_relocation_boundaries
FN:3090,_RNvNtNtCseSBbdzXc5r3_21vm_cross_arch_support20translation_pipeline5testss_42test_round16_concurrent_translation_stress
FN:3264,_RNvNtNtCseSBbdzXc5r3_21vm_cross_arch_support20translation_pipeline5testss_42test_round16_performance_after_cache_clear
FN:3798,_RNvNtNtCseSBbdzXc5r3_21vm_cross_arch_support20translation_pipeline5testss_42test_round17_complete_workflow_integration
FN:2607,_RNvNtNtCseSBbdzXc5r3_21vm_cross_arch_support20translation_pipeline5testss_43test_round14_complete_simd_register_mapping
FN:2924,_RNvNtNtCseSBbdzXc5r3_21vm_cross_arch_support20translation_pipeline5testss_43test_round15_cache_invalidation_consistency
FN:3341,_RNvNtNtCseSBbdzXc5r3_21vm_cross_arch_support20translation_pipeline5testss_43test_round16_translation_stats_completeness
FN:3609,_RNvNtNtCseSBbdzXc5r3_21vm_cross_arch_support20translation_pipeline5testss_43test_round17_all_simd_instructions_parallel
FN:3697,_RNvNtNtCseSBbdzXc5r3_21vm_cross_arch_support20translation_pipeline5testss_43test_round17_parallel_vs_serial_consistency
FN:2507,_RNvNtNtCseSBbdzXc5r3_21vm_cross_arch_support20translation_pipeline5testss_44test_round14_neon_arithmetic_reverse_mapping
FN:3211,_RNvNtNtCseSBbdzXc5r3_21vm_cross_arch_support20translation_pipeline5testss_44test_round16_mixed_operand_types_translation
FN:2239,_RNvNtNtCseSBbdzXc5r3_21vm_cross_arch_support20translation_pipeline5testss_45test_round13_cross_architecture_compatibility
FN:2890,_RNvNtNtCseSBbdzXc5r3_21vm_cross_arch_support20translation_pipeline5testss_45test_round15_parallel_translation_correctness
FN:3655,_RNvNtNtCseSBbdzXc5r3_21vm_cross_arch_support20translation_pipeline5testss_45test_round17_large_scale_parallel_performance
FN:1920,_RNvNtNtCseSBbdzXc5r3_21vm_cross_arch_support20translation_pipeline5testss_46test_round12_unsupported_translation_direction
FN:2210,_RNvNtNtCseSBbdzXc5r3_21vm_cross_arch_support20translation_pipeline5testss_46test_round13_full_instruction_translation_flow
FN:2960,_RNvNtNtCseSBbdzXc5r3_21vm_cross_arch_support20translation_pipeline5testss_46test_round15_extremely_large_instruction_block
FN:3524,_RNvNtNtCseSBbdzXc5r3_21vm_cross_arch_support20translation_pipeline5testss_48test_round17_parallel_translation_stats_accuracy
FN:2846,_RNvNtNtCseSBbdzXc5r3_21vm_cross_arch_support20translation_pipeline5testss_49test_round15_mixed_architecture_batch_consistency
FN:3770,_RNvNtNtCseSBbdzXc5r3_21vm_cross_arch_support20translation_pipeline5testss_49test_round17_register_mapping_cache_effectiveness
FN:3134,_RNvNtNtCseSBbdzXc5r3_21vm_cross_arch_support20translation_pipeline5testss_51test_round16_large_scale_parallel_block_translation
FN:3174,_RNvNtNtCseSBbdzXc5r3_21vm_cross_arch_support20translation_pipeline5testss_53test_round16_single_instruction_performance_benchmark
FNDA:50,_RNCNvMs0_NtCseSBbdzXc5r3_21vm_cross_arch_support20translation_pipelineNtB7_28CrossArchTranslationPipeline24translate_parallel_batch0B9_
FNDA:30,_RNCNvMs0_NtCseSBbdzXc5r3_21vm_cross_arch_support20translation_pipelineNtB7_28CrossArchTranslationPipeline25translate_blocks_parallel0B9_
FNDA:8,_RNCNvNtNtCseSBbdzXc5r3_21vm_cross_arch_support20translation_pipeline5testss_28test_concurrent_cache_access0B7_
FNDA:4,_RNCNvNtNtCseSBbdzXc5r3_21vm_cross_arch_support20translation_pipeline5testss_34test_concurrent_translation_safety0B7_
FNDA:20,_RNCNvNtNtCseSBbdzXc5r3_21vm_cross_arch_support20translation_pipeline5testss_42test_round16_concurrent_translation_stress0B7_
FNDA:0,_RNvMs0_NtCseSBbdzXc5r3_21vm_cross_arch_support20translation_pipelineNtB5_28CrossArchTranslationPipeline33translate_block_parallel_internal
FNDA:0,_RNvXs1_NtCseSBbdzXc5r3_21vm_cross_arch_support20translation_pipelineNtB5_28CrossArchTranslationPipelineNtNtCskzPJi2J8k3N_4core7default7Default7default
FNDA:0,_RNvXs_NtCseSBbdzXc5r3_21vm_cross_arch_support20translation_pipelineNtB4_20RegisterMappingCacheNtNtCskzPJi2J8k3N_4core7default7Default7default
FNDA:4531,_RNvMNtCseSBbdzXc5r3_21vm_cross_arch_support20translation_pipelineNtB2_20RegisterMappingCache14map_or_compute
FNDA:189,_RNvMNtCseSBbdzXc5r3_21vm_cross_arch_support20translation_pipelineNtB2_20RegisterMappingCache15compute_mapping
FNDA:135,_RNvMNtCseSBbdzXc5r3_21vm_cross_arch_support20translation_pipelineNtB2_20RegisterMappingCache3new
FNDA:4,_RNvMNtCseSBbdzXc5r3_21vm_cross_arch_support20translation_pipelineNtB2_20RegisterMappingCache8hit_rate
FNDA:40,_RNvMs0_NtCseSBbdzXc5r3_21vm_cross_arch_support20translation_pipelineNtB5_28CrossArchTranslationPipeline12map_register
FNDA:5,_RNvMs0_NtCseSBbdzXc5r3_21vm_cross_arch_support20translation_pipelineNtB5_28CrossArchTranslationPipeline14cache_hit_rate
FNDA:40,_RNvMs0_NtCseSBbdzXc5r3_21vm_cross_arch_support20translation_pipelineNtB5_28CrossArchTranslationPipeline14reg_id_from_u8
FNDA:17,_RNvMs0_NtCseSBbdzXc5r3_21vm_cross_arch_support20translation_pipelineNtB5_28CrossArchTranslationPipeline15translate_block
FNDA:0,_RNvMs0_NtCseSBbdzXc5r3_21vm_cross_arch_support20translation_pipelineNtB5_28CrossArchTranslationPipeline16relocate_address
FNDA:4291,_RNvMs0_NtCseSBbdzXc5r3_21vm_cross_arch_support20translation_pipelineNtB5_28CrossArchTranslationPipeline16translate_opcode
FNDA:0,_RNvMs0_NtCseSBbdzXc5r3_21vm_cross_arch_support20translation_pipelineNtB5_28CrossArchTranslationPipeline18get_immediate_bits
FNDA:4863,_RNvMs0_NtCseSBbdzXc5r3_21vm_cross_arch_support20translation_pipelineNtB5_28CrossArchTranslationPipeline18get_opcode_mapping
FNDA:4241,_RNvMs0_NtCseSBbdzXc5r3_21vm_cross_arch_support20translation_pipelineNtB5_28CrossArchTranslationPipeline18translate_operands
FNDA:0,_RNvMs0_NtCseSBbdzXc5r3_21vm_cross_arch_support20translation_pipelineNtB5_28CrossArchTranslationPipeline21adjust_immediate_size
FNDA:4246,_RNvMs0_NtCseSBbdzXc5r3_21vm_cross_arch_support20translation_pipelineNtB5_28CrossArchTranslationPipeline21translate_instruction
FNDA:7,_RNvMs0_NtCseSBbdzXc5r3_21vm_cross_arch_support20translation_pipelineNtB5_28CrossArchTranslationPipeline23avg_translation_time_ns
FNDA:572,_RNvMs0_NtCseSBbdzXc5r3_21vm_cross_arch_support20translation_pipelineNtB5_28CrossArchTranslationPipeline23translate_opcode_static
FNDA:25,_RNvMs0_NtCseSBbdzXc5r3_21vm_cross_arch_support20translation_pipelineNtB5_28CrossArchTranslationPipeline24is_translation_supported
FNDA:1,_RNvMs0_NtCseSBbdzXc5r3_21vm_cross_arch_support20translation_pipelineNtB5_28CrossArchTranslationPipeline24translate_parallel_batch
FNDA:8,_RNvMs0_NtCseSBbdzXc5r3_21vm_cross_arch_support20translation_pipelineNtB5_28CrossArchTranslationPipeline25translate_blocks_parallel
FNDA:622,_RNvMs0_NtCseSBbdzXc5r3_21vm_cross_arch_support20translation_pipelineNtB5_28CrossArchTranslationPipeline25translate_operands_static
FNDA:4246,_RNvMs0_NtCseSBbdzXc5r3_21vm_cross_arch_support20translation_pipelineNtB5_28CrossArchTranslationPipeline27generate_target_instruction
FNDA:50,_RNvMs0_NtCseSBbdzXc5r3_21vm_cross_arch_support20translation_pipelineNtB5_28CrossArchTranslationPipeline27translate_instruction_batch
FNDA:50,_RNvMs0_NtCseSBbdzXc5r3_21vm_cross_arch_support20translation_pipelineNtB5_28CrossArchTranslationPipeline33generate_target_instruction_batch
FNDA:573,_RNvMs0_NtCseSBbdzXc5r3_21vm_cross_arch_support20translation_pipelineNtB5_28CrossArchTranslationPipeline34generate_target_instruction_static
FNDA:84,_RNvMs0_NtCseSBbdzXc5r3_21vm_cross_arch_support20translation_pipelineNtB5_28CrossArchTranslationPipeline3new
FNDA:4,_RNvMs0_NtCseSBbdzXc5r3_21vm_cross_arch_support20translation_pipelineNtB5_28CrossArchTranslationPipeline5clear
FNDA:9,_RNvMs0_NtCseSBbdzXc5r3_21vm_cross_arch_support20translation_pipelineNtB5_28CrossArchTranslationPipeline5stats
FNDA:3,_RNvMs0_NtCseSBbdzXc5r3_21vm_cross_arch_support20translation_pipelineNtB5_28CrossArchTranslationPipeline6warmup
FNDA:4869,_RNvNtCseSBbdzXc5r3_21vm_cross_arch_support20translation_pipeline26cache_arch_to_pattern_arch
FNDA:500,_RNCNCNvNtNtCseSBbdzXc5r3_21vm_cross_arch_support20translation_pipeline5testss_45test_round17_large_scale_parallel_performance00B9_
FNDA:500,_RNCNCNvNtNtCseSBbdzXc5r3_21vm_cross_arch_support20translation_pipeline5testss_51test_round16_large_scale_parallel_block_translation00B9_
FNDA:4964,_RNCNvMs0_NtCseSBbdzXc5r3_21vm_cross_arch_support20translation_pipelineNtB7_28CrossArchTranslationPipeline18translate_operands0B9_
FNDA:1000,_RNCNvNtNtCseSBbdzXc5r3_21vm_cross_arch_support20translation_pipeline5testss_28test_large_instruction_block0B7_
FNDA:7,_RNCNvNtNtCseSBbdzXc5r3_21vm_cross_arch_support20translation_pipeline5testss_28test_mixed_instruction_block0B7_
FNDA:100,_RNCNvNtNtCseSBbdzXc5r3_21vm_cross_arch_support20translation_pipeline5testss_34test_batch_translation_performance0B7_
FNDA:50,_RNCNvNtNtCseSBbdzXc5r3_21vm_cross_arch_support20translation_pipeline5testss_39test_round17_mixed_size_blocks_parallel0B7_
FNDA:112,_RNCNvNtNtCseSBbdzXc5r3_21vm_cross_arch_support20translation_pipeline5testss_40test_large_scale_translation_performance0B7_
FNDA:4,_RNCNvNtNtCseSBbdzXc5r3_21vm_cross_arch_support20translation_pipeline5testss_42test_round13_batch_translation_consistency0B7_
FNDA:20,_RNCNvNtNtCseSBbdzXc5r3_21vm_cross_arch_support20translation_pipeline5testss_42test_round17_complete_workflow_integration0B7_
FNDA:9,_RNCNvNtNtCseSBbdzXc5r3_21vm_cross_arch_support20translation_pipeline5testss_43test_round17_all_simd_instructions_parallel0B7_
FNDA:50,_RNCNvNtNtCseSBbdzXc5r3_21vm_cross_arch_support20translation_pipeline5testss_45test_round15_parallel_translation_correctness0B7_
FNDA:10,_RNCNvNtNtCseSBbdzXc5r3_21vm_cross_arch_support20translation_pipeline5testss_45test_round17_large_scale_parallel_performance0B7_
FNDA:10,_RNCNvNtNtCseSBbdzXc5r3_21vm_cross_arch_support20translation_pipeline5testss_45test_round17_large_scale_parallel_performances_0B7_
FNDA:200,_RNCNvNtNtCseSBbdzXc5r3_21vm_cross_arch_support20translation_pipeline5testss_46test_round15_extremely_large_instruction_block0B7_
FNDA:5,_RNCNvNtNtCseSBbdzXc5r3_21vm_cross_arch_support20translation_pipeline5testss_51test_round16_large_scale_parallel_block_translation0B7_
FNDA:5,_RNCNvNtNtCseSBbdzXc5r3_21vm_cross_arch_support20translation_pipeline5testss_51test_round16_large_scale_parallel_block_translations_0B7_
FNDA:3,_RNCNvNtNtCseSBbdzXc5r3_21vm_cross_arch_support20translation_pipeline5testss_20test_translate_block0B7_
FNDA:1000,_RNCNvNtNtCseSBbdzXc5r3_21vm_cross_arch_support20translation_pipeline5testss_28test_large_instruction_blocks_0B7_
FNDA:7,_RNCNvNtNtCseSBbdzXc5r3_21vm_cross_arch_support20translation_pipeline5testss_28test_mixed_instruction_blocks_0B7_
FNDA:1378,_RNvNtNtCseSBbdzXc5r3_21vm_cross_arch_support20translation_pipeline5tests23create_test_instruction
FNDA:1,_RNvNtNtCseSBbdzXc5r3_21vm_cross_arch_support20translation_pipeline5testss_10test_stats
FNDA:1,_RNvNtNtCseSBbdzXc5r3_21vm_cross_arch_support20translation_pipeline5testss_17test_cache_warmup
FNDA:1,_RNvNtNtCseSBbdzXc5r3_21vm_cross_arch_support20translation_pipeline5testss_17test_clear_caches
FNDA:1,_RNvNtNtCseSBbdzXc5r3_21vm_cross_arch_support20translation_pipeline5testss_20test_translate_block
FNDA:1,_RNvNtNtCseSBbdzXc5r3_21vm_cross_arch_support20translation_pipeline5testss_21test_register_mapping
FNDA:1,_RNvNtNtCseSBbdzXc5r3_21vm_cross_arch_support20translation_pipeline5testss_22test_pipeline_creation
FNDA:0,_RNvNtNtCseSBbdzXc5r3_21vm_cross_arch_support20translation_pipeline5testss_24test_cache_effectiveness
FNDA:1,_RNvNtNtCseSBbdzXc5r3_21vm_cross_arch_support20translation_pipeline5testss_24test_translate_same_arch
FNDA:0,_RNvNtNtCseSBbdzXc5r3_21vm_cross_arch_support20translation_pipeline5testss_24test_zero_register_index
FNDA:1,_RNvNtNtCseSBbdzXc5r3_21vm_cross_arch_support20translation_pipeline5testss_25test_arm64_to_x86_logical
FNDA:1,_RNvNtNtCseSBbdzXc5r3_21vm_cross_arch_support20translation_pipeline5testss_25test_x86_to_arm64_logical
FNDA:0,_RNvNtNtCseSBbdzXc5r3_21vm_cross_arch_support20translation_pipeline5testss_27test_maximum_register_index
FNDA:1,_RNvNtNtCseSBbdzXc5r3_21vm_cross_arch_support20translation_pipeline5testss_27test_translate_x86_to_riscv
FNDA:1,_RNvNtNtCseSBbdzXc5r3_21vm_cross_arch_support20translation_pipeline5testss_28test_arm64_to_x86_arithmetic
FNDA:1,_RNvNtNtCseSBbdzXc5r3_21vm_cross_arch_support20translation_pipeline5testss_28test_cache_hit_rate_tracking
FNDA:1,_RNvNtNtCseSBbdzXc5r3_21vm_cross_arch_support20translation_pipeline5testss_28test_concurrent_cache_access
FNDA:1,_RNvNtNtCseSBbdzXc5r3_21vm_cross_arch_support20translation_pipeline5testss_28test_empty_instruction_block
FNDA:1,_RNvNtNtCseSBbdzXc5r3_21vm_cross_arch_support20translation_pipeline5testss_28test_large_instruction_block
FNDA:1,_RNvNtNtCseSBbdzXc5r3_21vm_cross_arch_support20translation_pipeline5testss_28test_mixed_instruction_block
FNDA:1,_RNvNtNtCseSBbdzXc5r3_21vm_cross_arch_support20translation_pipeline5testss_28test_unsupported_translation
FNDA:1,_RNvNtNtCseSBbdzXc5r3_21vm_cross_arch_support20translation_pipeline5testss_28test_vector_register_mapping
FNDA:1,_RNvNtNtCseSBbdzXc5r3_21vm_cross_arch_support20translation_pipeline5testss_28test_x86_to_arm64_arithmetic
FNDA:1,_RNvNtNtCseSBbdzXc5r3_21vm_cross_arch_support20translation_pipeline5testss_29test_all_x86_registers_to_arm
FNDA:0,_RNvNtNtCseSBbdzXc5r3_21vm_cross_arch_support20translation_pipeline5testss_29test_register_not_found_error
FNDA:1,_RNvNtNtCseSBbdzXc5r3_21vm_cross_arch_support20translation_pipeline5testss_29test_x86_to_arm64_sse_compare
FNDA:1,_RNvNtNtCseSBbdzXc5r3_21vm_cross_arch_support20translation_pipeline5testss_29test_x86_to_arm64_sse_logical
FNDA:1,_RNvNtNtCseSBbdzXc5r3_21vm_cross_arch_support20translation_pipeline5testss_30test_arm64_to_x86_control_flow
FNDA:1,_RNvNtNtCseSBbdzXc5r3_21vm_cross_arch_support20translation_pipeline5testss_30test_simd_maximum_register_v31
FNDA:1,_RNvNtNtCseSBbdzXc5r3_21vm_cross_arch_support20translation_pipeline5testss_30test_x86_to_arm64_control_flow
FNDA:1,_RNvNtNtCseSBbdzXc5r3_21vm_cross_arch_support20translation_pipeline5testss_31test_arm64_to_x86_data_transfer
FNDA:1,_RNvNtNtCseSBbdzXc5r3_21vm_cross_arch_support20translation_pipeline5testss_31test_round15_negative_immediate
FNDA:1,_RNvNtNtCseSBbdzXc5r3_21vm_cross_arch_support20translation_pipeline5testss_31test_translation_stats_tracking
FNDA:1,_RNvNtNtCseSBbdzXc5r3_21vm_cross_arch_support20translation_pipeline5testss_31test_x86_to_arm64_data_transfer
FNDA:1,_RNvNtNtCseSBbdzXc5r3_21vm_cross_arch_support20translation_pipeline5testss_32test_simd_maximum_register_xmm15
FNDA:1,_RNvNtNtCseSBbdzXc5r3_21vm_cross_arch_support20translation_pipeline5testss_32test_x86_to_arm64_sse_arithmetic
FNDA:1,_RNvNtNtCseSBbdzXc5r3_21vm_cross_arch_support20translation_pipeline5testss_33test_arm64_to_x86_neon_arithmetic
FNDA:1,_RNvNtNtCseSBbdzXc5r3_21vm_cross_arch_support20translation_pipeline5testss_33test_invalid_instruction_handling
FNDA:1,_RNvNtNtCseSBbdzXc5r3_21vm_cross_arch_support20translation_pipeline5testss_33test_register_cache_prepopulation
FNDA:1,_RNvNtNtCseSBbdzXc5r3_21vm_cross_arch_support20translation_pipeline5testss_33test_round16_warmup_functionality
FNDA:1,_RNvNtNtCseSBbdzXc5r3_21vm_cross_arch_support20translation_pipeline5testss_34test_batch_translation_performance
FNDA:1,_RNvNtNtCseSBbdzXc5r3_21vm_cross_arch_support20translation_pipeline5testss_34test_concurrent_translation_safety
FNDA:1,_RNvNtNtCseSBbdzXc5r3_21vm_cross_arch_support20translation_pipeline5testss_34test_round14_riscv_mov_translation
FNDA:1,_RNvNtNtCseSBbdzXc5r3_21vm_cross_arch_support20translation_pipeline5testss_34test_round14_riscv_nop_translation
FNDA:1,_RNvNtNtCseSBbdzXc5r3_21vm_cross_arch_support20translation_pipeline5testss_34test_round17_empty_blocks_parallel
FNDA:1,_RNvNtNtCseSBbdzXc5r3_21vm_cross_arch_support20translation_pipeline5testss_35test_riscv_to_x86_register_boundary
FNDA:1,_RNvNtNtCseSBbdzXc5r3_21vm_cross_arch_support20translation_pipeline5testss_35test_round13_immediate_out_of_range
FNDA:1,_RNvNtNtCseSBbdzXc5r3_21vm_cross_arch_support20translation_pipeline5testss_35test_round16_all_architecture_pairs
FNDA:1,_RNvNtNtCseSBbdzXc5r3_21vm_cross_arch_support20translation_pipeline5testss_35test_x86_to_arm64_sse_data_transfer
FNDA:1,_RNvNtNtCseSBbdzXc5r3_21vm_cross_arch_support20translation_pipeline5testss_36test_arm64_to_x86_neon_data_transfer
FNDA:1,_RNvNtNtCseSBbdzXc5r3_21vm_cross_arch_support20translation_pipeline5testss_36test_sse_neon_round_trip_translation
FNDA:1,_RNvNtNtCseSBbdzXc5r3_21vm_cross_arch_support20translation_pipeline5testss_37test_round14_multiple_memory_operands
FNDA:1,_RNvNtNtCseSBbdzXc5r3_21vm_cross_arch_support20translation_pipeline5testss_37test_round14_sse_logical_instructions
FNDA:1,_RNvNtNtCseSBbdzXc5r3_21vm_cross_arch_support20translation_pipeline5testss_37test_round16_average_translation_time
FNDA:1,_RNvNtNtCseSBbdzXc5r3_21vm_cross_arch_support20translation_pipeline5testss_37test_x86_arm64_round_trip_translation
FNDA:1,_RNvNtNtCseSBbdzXc5r3_21vm_cross_arch_support20translation_pipeline5testss_38test_round15_empty_operands_edge_cases
FNDA:1,_RNvNtNtCseSBbdzXc5r3_21vm_cross_arch_support20translation_pipeline5testss_38test_round15_very_large_register_index
FNDA:1,_RNvNtNtCseSBbdzXc5r3_21vm_cross_arch_support20translation_pipeline5testss_38test_round17_translate_blocks_parallel
FNDA:1,_RNvNtNtCseSBbdzXc5r3_21vm_cross_arch_support20translation_pipeline5testss_38test_simd_register_boundary_v16_to_v31
FNDA:1,_RNvNtNtCseSBbdzXc5r3_21vm_cross_arch_support20translation_pipeline5testss_38test_unsupported_translation_direction
FNDA:1,_RNvNtNtCseSBbdzXc5r3_21vm_cross_arch_support20translation_pipeline5testss_39test_round12_empty_operands_instruction
FNDA:1,_RNvNtNtCseSBbdzXc5r3_21vm_cross_arch_support20translation_pipeline5testss_39test_round13_memory_operand_translation
FNDA:1,_RNvNtNtCseSBbdzXc5r3_21vm_cross_arch_support20translation_pipeline5testss_39test_round13_register_mapping_all_types
FNDA:1,_RNvNtNtCseSBbdzXc5r3_21vm_cross_arch_support20translation_pipeline5testss_39test_round13_translation_pipeline_stats
FNDA:1,_RNvNtNtCseSBbdzXc5r3_21vm_cross_arch_support20translation_pipeline5testss_39test_round16_cache_hit_rate_calculation
FNDA:1,_RNvNtNtCseSBbdzXc5r3_21vm_cross_arch_support20translation_pipeline5testss_39test_round17_mixed_size_blocks_parallel
FNDA:1,_RNvNtNtCseSBbdzXc5r3_21vm_cross_arch_support20translation_pipeline5testss_40test_large_scale_translation_performance
FNDA:1,_RNvNtNtCseSBbdzXc5r3_21vm_cross_arch_support20translation_pipeline5testss_40test_round14_sse_arithmetic_instructions
FNDA:1,_RNvNtNtCseSBbdzXc5r3_21vm_cross_arch_support20translation_pipeline5testss_40test_round15_architecture_immediate_bits
FNDA:1,_RNvNtNtCseSBbdzXc5r3_21vm_cross_arch_support20translation_pipeline5testss_40test_round17_same_arch_no_op_translation
FNDA:1,_RNvNtNtCseSBbdzXc5r3_21vm_cross_arch_support20translation_pipeline5testss_41test_cache_performance_with_large_dataset
FNDA:1,_RNvNtNtCseSBbdzXc5r3_21vm_cross_arch_support20translation_pipeline5testss_41test_mixed_architecture_translation_batch
FNDA:1,_RNvNtNtCseSBbdzXc5r3_21vm_cross_arch_support20translation_pipeline5testss_41test_round12_invalid_instruction_handling
FNDA:1,_RNvNtNtCseSBbdzXc5r3_21vm_cross_arch_support20translation_pipeline5testss_41test_round15_immediate_out_of_range_error
FNDA:1,_RNvNtNtCseSBbdzXc5r3_21vm_cross_arch_support20translation_pipeline5testss_42test_round13_batch_translation_consistency
FNDA:1,_RNvNtNtCseSBbdzXc5r3_21vm_cross_arch_support20translation_pipeline5testss_42test_round14_arm64_inc_dec_reverse_mapping
FNDA:1,_RNvNtNtCseSBbdzXc5r3_21vm_cross_arch_support20translation_pipeline5testss_42test_round14_arm64_logical_reverse_mapping
FNDA:1,_RNvNtNtCseSBbdzXc5r3_21vm_cross_arch_support20translation_pipeline5testss_42test_round15_address_relocation_boundaries
FNDA:1,_RNvNtNtCseSBbdzXc5r3_21vm_cross_arch_support20translation_pipeline5testss_42test_round16_concurrent_translation_stress
FNDA:1,_RNvNtNtCseSBbdzXc5r3_21vm_cross_arch_support20translation_pipeline5testss_42test_round16_performance_after_cache_clear
FNDA:1,_RNvNtNtCseSBbdzXc5r3_21vm_cross_arch_support20translation_pipeline5testss_42test_round17_complete_workflow_integration
FNDA:1,_RNvNtNtCseSBbdzXc5r3_21vm_cross_arch_support20translation_pipeline5testss_43test_round14_complete_simd_register_mapping
FNDA:1,_RNvNtNtCseSBbdzXc5r3_21vm_cross_arch_support20translation_pipeline5testss_43test_round15_cache_invalidation_consistency
FNDA:1,_RNvNtNtCseSBbdzXc5r3_21vm_cross_arch_support20translation_pipeline5testss_43test_round16_translation_stats_completeness
FNDA:1,_RNvNtNtCseSBbdzXc5r3_21vm_cross_arch_support20translation_pipeline5testss_43test_round17_all_simd_instructions_parallel
FNDA:1,_RNvNtNtCseSBbdzXc5r3_21vm_cross_arch_support20translation_pipeline5testss_43test_round17_parallel_vs_serial_consistency
FNDA:1,_RNvNtNtCseSBbdzXc5r3_21vm_cross_arch_support20translation_pipeline5testss_44test_round14_neon_arithmetic_reverse_mapping
FNDA:1,_RNvNtNtCseSBbdzXc5r3_21vm_cross_arch_support20translation_pipeline5testss_44test_round16_mixed_operand_types_translation
FNDA:1,_RNvNtNtCseSBbdzXc5r3_21vm_cross_arch_support20translation_pipeline5testss_45test_round13_cross_architecture_compatibility
FNDA:1,_RNvNtNtCseSBbdzXc5r3_21vm_cross_arch_support20translation_pipeline5testss_45test_round15_parallel_translation_correctness
FNDA:1,_RNvNtNtCseSBbdzXc5r3_21vm_cross_arch_support20translation_pipeline5testss_45test_round17_large_scale_parallel_performance
FNDA:1,_RNvNtNtCseSBbdzXc5r3_21vm_cross_arch_support20translation_pipeline5testss_46test_round12_unsupported_translation_direction
FNDA:1,_RNvNtNtCseSBbdzXc5r3_21vm_cross_arch_support20translation_pipeline5testss_46test_round13_full_instruction_translation_flow
FNDA:1,_RNvNtNtCseSBbdzXc5r3_21vm_cross_arch_support20translation_pipeline5testss_46test_round15_extremely_large_instruction_block
FNDA:1,_RNvNtNtCseSBbdzXc5r3_21vm_cross_arch_support20translation_pipeline5testss_48test_round17_parallel_translation_stats_accuracy
FNDA:1,_RNvNtNtCseSBbdzXc5r3_21vm_cross_arch_support20translation_pipeline5testss_49test_round15_mixed_architecture_batch_consistency
FNDA:1,_RNvNtNtCseSBbdzXc5r3_21vm_cross_arch_support20translation_pipeline5testss_49test_round17_register_mapping_cache_effectiveness
FNDA:1,_RNvNtNtCseSBbdzXc5r3_21vm_cross_arch_support20translation_pipeline5testss_51test_round16_large_scale_parallel_block_translation
FNDA:1,_RNvNtNtCseSBbdzXc5r3_21vm_cross_arch_support20translation_pipeline5testss_53test_round16_single_instruction_performance_benchmark
FNF:157
FNH:147
DA:22,4869
DA:23,4869
DA:24,4801
DA:25,56
DA:26,12
DA:28,4869
DA:55,135
DA:56,135
DA:60,4455
DA:61,4320
DA:62,4320
DA:63,4320
DA:64,4320
DA:65,4320
DA:68,4455
DA:69,4320
DA:70,4320
DA:71,4320
DA:72,4320
DA:73,4320
DA:76,2295
DA:77,2160
DA:78,2160
DA:79,2160
DA:80,2160
DA:81,2160
DA:85,2295
DA:86,2160
DA:87,2160
DA:88,2160
DA:89,2160
DA:90,2160
DA:93,2295
DA:94,2160
DA:95,2160
DA:96,2160
DA:97,2160
DA:98,2160
DA:100,135
DA:101,135
DA:102,135
DA:103,135
DA:104,135
DA:105,135
DA:108,4531
DA:109,4531
DA:110,4531
DA:111,4531
DA:112,4531
DA:113,4531
DA:114,4531
DA:116,4531
DA:117,4342
DA:118,4342
DA:119,189
DA:121,189
DA:124,189
DA:125,189
DA:126,189
DA:127,4531
DA:130,189
DA:131,189
DA:133,0
DA:135,0
DA:137,16
DA:139,2
DA:141,0
DA:143,18
DA:145,153
DA:146,133
DA:147,20
DA:148,0
DA:149,0
DA:150,0
DA:153,189
DA:156,4
DA:157,4
DA:158,4
DA:159,4
DA:161,4
DA:162,0
DA:164,4
DA:166,4
DA:170,0
DA:171,0
DA:172,0
DA:233,84
DA:234,84
DA:235,84
DA:236,84
DA:237,84
DA:238,84
DA:239,84
DA:240,84
DA:243,17
DA:244,17
DA:245,17
DA:246,17
DA:247,17
DA:248,17
DA:250,17
DA:251,0
DA:252,17
DA:254,17
DA:257,17
DA:258,1969
DA:259,1952
DA:262,17
DA:263,17
DA:264,17
DA:265,17
DA:266,17
DA:267,17
DA:268,17
DA:270,17
DA:271,17
DA:305,8
DA:306,8
DA:307,8
DA:308,8
DA:309,8
DA:310,8
DA:312,8
DA:313,0
DA:314,8
DA:316,8
DA:319,8
DA:320,8
DA:321,8
DA:324,8
DA:325,8
DA:326,30
DA:328,30
DA:329,603
DA:331,573
DA:333,573
DA:334,573
DA:335,573
DA:336,573
DA:337,573
DA:339,573
DA:340,573
DA:342,573
DA:345,573
DA:347,30
DA:348,30
DA:349,8
DA:351,8
DA:352,8
DA:353,8
DA:354,8
DA:356,8
DA:357,8
DA:367,0
DA:368,0
DA:369,0
DA:370,0
DA:371,0
DA:372,0
DA:374,0
DA:375,0
DA:376,0
DA:378,0
DA:381,0
DA:382,0
DA:384,0
DA:385,0
DA:386,0
DA:387,0
DA:389,0
DA:390,0
DA:393,4246
DA:394,4246
DA:395,4246
DA:396,4246
DA:397,4246
DA:398,4246
DA:399,4246
DA:402,4246
DA:405,4246
DA:406,4246
DA:407,4246
DA:408,4246
DA:409,4246
DA:410,4246
DA:413,4246
DA:416,4246
DA:417,4246
DA:418,4246
DA:419,4246
DA:420,4246
DA:422,4246
DA:423,4246
DA:426,25
DA:427,25
DA:429,4
DA:430,20
DA:431,0
DA:432,0
DA:433,0
DA:434,0
DA:436,1
DA:438,0
DA:440,25
DA:443,4246
DA:444,4246
DA:445,4246
DA:446,4246
DA:447,4246
DA:448,4246
DA:449,4246
DA:451,4246
DA:452,5
DA:453,4241
DA:456,4241
DA:459,4241
DA:461,4241
DA:462,4241
DA:463,4241
DA:464,4241
DA:465,4241
DA:466,4246
DA:469,573
DA:470,573
DA:471,573
DA:472,573
DA:473,573
DA:474,573
DA:476,573
DA:477,1
DA:478,572
DA:481,572
DA:482,572
DA:485,572
DA:487,572
DA:488,572
DA:489,572
DA:490,572
DA:491,572
DA:492,573
DA:495,4291
DA:496,4291
DA:497,4291
DA:498,4291
DA:499,4291
DA:500,4291
DA:501,4291
DA:503,4291
DA:506,4291
DA:507,2614
DA:510,1677
DA:512,4291
DA:515,572
DA:516,572
DA:517,572
DA:518,572
DA:519,572
DA:520,572
DA:522,572
DA:525,572
DA:526,96
DA:529,476
DA:531,572
DA:534,4863
DA:535,4863
DA:542,4863
DA:545,4863
DA:552,4863
DA:553,4863
DA:554,4863
DA:555,4863
DA:556,4863
DA:557,4863
DA:558,4863
DA:561,4863
DA:562,4863
DA:563,4863
DA:564,4863
DA:565,4863
DA:568,4863
DA:569,4863
DA:570,4863
DA:571,4863
DA:572,4863
DA:573,4863
DA:574,4863
DA:575,4863
DA:578,4863
DA:579,4863
DA:580,4863
DA:581,4863
DA:582,4863
DA:583,4863
DA:584,4863
DA:585,4863
DA:586,4863
DA:593,4863
DA:594,4863
DA:595,4863
DA:596,4863
DA:597,4863
DA:598,4863
DA:601,4863
DA:602,4863
DA:603,4863
DA:604,4863
DA:605,4863
DA:608,4863
DA:609,4863
DA:610,4863
DA:611,4863
DA:612,4863
DA:613,4863
DA:616,4863
DA:617,4863
DA:618,4863
DA:619,4863
DA:627,4863
DA:628,4863
DA:629,4863
DA:630,4863
DA:631,4863
DA:632,4863
DA:635,4863
DA:636,4863
DA:637,4863
DA:638,4863
DA:639,4863
DA:640,4863
DA:641,4863
DA:642,4863
DA:645,4863
DA:646,4863
DA:647,4863
DA:648,4863
DA:651,4863
DA:652,4863
DA:655,4863
DA:656,4863
DA:657,4863
DA:658,4863
DA:659,4863
DA:660,4863
DA:661,4863
DA:662,4863
DA:663,4863
DA:664,4863
DA:665,4863
DA:666,4863
DA:667,4863
DA:669,4863
DA:670,4863
DA:673,622
DA:674,622
DA:675,622
DA:676,622
DA:677,622
DA:680,622
DA:682,662
DA:683,40
DA:684,40
DA:686,40
DA:687,40
DA:688,40
DA:689,40
DA:690,40
DA:691,40
DA:692,0
DA:693,40
DA:696,0
DA:698,0
DA:699,0
DA:700,0
DA:703,0
DA:705,0
DA:706,0
DA:707,0
DA:708,0
DA:709,0
DA:710,0
DA:711,0
DA:712,0
DA:713,0
DA:714,0
DA:715,0
DA:716,0
DA:717,0
DA:718,0
DA:723,622
DA:724,622
DA:727,40
DA:729,40
DA:731,40
DA:732,40
DA:733,0
DA:734,0
DA:737,40
DA:739,40
DA:740,40
DA:741,0
DA:742,0
DA:743,0
DA:744,0
DA:746,40
DA:749,40
DA:750,40
DA:751,40
DA:752,0
DA:753,0
DA:755,40
DA:758,0
DA:759,0
DA:760,0
DA:761,0
DA:762,0
DA:764,0
DA:765,0
DA:768,0
DA:769,0
DA:770,0
DA:772,0
DA:773,0
DA:776,0
DA:777,0
DA:778,0
DA:779,0
DA:780,0
DA:782,0
DA:785,0
DA:786,0
DA:787,0
DA:788,0
DA:789,0
DA:791,0
DA:795,0
DA:797,0
DA:798,0
DA:800,0
DA:803,4241
DA:804,4241
DA:805,4241
DA:806,4241
DA:807,4241
DA:808,4241
DA:811,4241
DA:812,4241
DA:813,4964
DA:814,3565
DA:816,3565
DA:817,3503
DA:818,58
DA:819,4
DA:822,3565
DA:823,3565
DA:824,3565
DA:825,3565
DA:826,3565
DA:828,3565
DA:829,3491
DA:830,59
DA:831,15
DA:832,0
DA:833,0
DA:836,3565
DA:838,1390
DA:839,9
DA:841,9
DA:842,9
DA:843,0
DA:844,0
DA:847,9
DA:848,9
DA:849,9
DA:850,9
DA:851,9
DA:853,9
DA:854,9
DA:855,0
DA:856,0
DA:857,0
DA:858,0
DA:861,9
DA:862,9
DA:863,9
DA:864,9
DA:865,9
DA:867,4964
DA:868,4241
DA:869,4241
DA:872,1
DA:873,1
DA:874,1
DA:875,1
DA:876,1
DA:877,1
DA:881,1
DA:882,1
DA:883,50
DA:884,1
DA:885,1
DA:888,50
DA:889,50
DA:890,50
DA:891,50
DA:892,50
DA:893,50
DA:894,50
DA:897,50
DA:900,50
DA:901,50
DA:902,50
DA:903,50
DA:904,50
DA:905,50
DA:908,50
DA:911,50
DA:912,50
DA:913,50
DA:914,50
DA:915,50
DA:917,50
DA:918,50
DA:921,50
DA:922,50
DA:923,50
DA:924,50
DA:925,50
DA:926,50
DA:927,50
DA:929,50
DA:930,0
DA:931,50
DA:934,50
DA:937,50
DA:939,50
DA:940,50
DA:941,50
DA:942,50
DA:943,50
DA:944,50
DA:947,3
DA:948,10
DA:949,7
DA:950,7
DA:951,7
DA:952,3
DA:955,9
DA:956,9
DA:957,9
DA:960,5
DA:961,5
DA:962,5
DA:963,5
DA:965,5
DA:966,5
DA:968,0
DA:970,5
DA:973,7
DA:974,7
DA:975,7
DA:977,7
DA:978,1
DA:980,6
DA:982,7
DA:985,4
DA:986,4
DA:987,4
DA:988,4
DA:992,0
DA:993,0
DA:994,0
DA:1006,1378
DA:1007,1378
DA:1008,1378
DA:1009,1378
DA:1010,1378
DA:1011,1378
DA:1012,1378
DA:1015,1
DA:1016,1
DA:1017,1
DA:1018,1
DA:1021,1
DA:1022,1
DA:1023,1
DA:1025,1
DA:1026,1
DA:1028,1
DA:1029,1
DA:1030,1
DA:1031,1
DA:1034,1
DA:1035,1
DA:1036,1
DA:1038,1
DA:1039,1
DA:1041,1
DA:1042,1
DA:1043,1
DA:1046,1
DA:1047,1
DA:1048,1
DA:1049,1
DA:1050,1
DA:1051,1
DA:1054,1
DA:1055,1
DA:1057,1
DA:1058,1
DA:1059,1
DA:1060,1
DA:1061,1
DA:1062,3
DA:1064,1
DA:1067,1
DA:1068,1
DA:1069,1
DA:1072,1
DA:1073,1
DA:1074,1
DA:1075,1
DA:1077,1
DA:1078,1
DA:1079,1
DA:1080,1
DA:1082,1
DA:1085,1
DA:1086,1
DA:1087,1
DA:1088,1
DA:1089,1
DA:1092,1
DA:1095,1
DA:1096,1
DA:1097,1
DA:1098,1
DA:1100,1
DA:1101,1
DA:1104,1
DA:1105,1
DA:1108,1
DA:1109,1
DA:1112,1
DA:1113,1
DA:1116,1
DA:1117,1
DA:1118,1
DA:1121,1
DA:1122,1
DA:1123,1
DA:1125,1
DA:1126,1
DA:1127,1
DA:1129,1
DA:1130,1
DA:1131,1
DA:1134,1
DA:1135,1
DA:1136,1
DA:1139,1
DA:1140,1
DA:1141,1
DA:1144,1
DA:1147,1
DA:1148,1
DA:1149,1
DA:1156,1
DA:1157,1
DA:1160,1
DA:1161,1
DA:1162,1
DA:1163,1
DA:1164,1
DA:1165,1
DA:1166,1
DA:1167,1
DA:1170,8
DA:1171,7
DA:1172,7
DA:1173,7
DA:1175,7
DA:1176,7
DA:1177,7
DA:1179,1
DA:1182,1
DA:1183,1
DA:1186,1
DA:1187,1
DA:1188,1
DA:1189,1
DA:1190,1
DA:1191,1
DA:1194,6
DA:1195,5
DA:1196,5
DA:1197,5
DA:1199,5
DA:1200,5
DA:1201,5
DA:1203,1
DA:1206,1
DA:1207,1
DA:1210,1
DA:1211,1
DA:1212,1
DA:1213,1
DA:1214,1
DA:1215,1
DA:1216,1
DA:1217,1
DA:1218,1
DA:1221,9
DA:1222,8
DA:1223,8
DA:1224,8
DA:1226,8
DA:1227,8
DA:1228,8
DA:1230,1
DA:1233,1
DA:1234,1
DA:1237,1
DA:1238,1
DA:1239,1
DA:1240,1
DA:1241,1
DA:1242,1
DA:1243,1
DA:1244,1
DA:1245,1
DA:1246,1
DA:1249,10
DA:1250,9
DA:1251,9
DA:1252,9
DA:1254,9
DA:1255,9
DA:1256,9
DA:1258,1
DA:1265,1
DA:1266,1
DA:1269,1
DA:1270,1
DA:1271,1
DA:1272,1
DA:1273,1
DA:1274,1
DA:1275,1
DA:1278,7
DA:1279,6
DA:1280,6
DA:1281,6
DA:1283,6
DA:1284,6
DA:1285,6
DA:1287,1
DA:1290,1
DA:1291,1
DA:1294,1
DA:1295,1
DA:1296,1
DA:1297,1
DA:1298,1
DA:1299,1
DA:1302,6
DA:1303,5
DA:1304,5
DA:1305,5
DA:1307,5
DA:1308,5
DA:1309,5
DA:1311,1
DA:1314,1
DA:1315,1
DA:1318,1
DA:1319,1
DA:1320,1
DA:1321,1
DA:1322,1
DA:1323,1
DA:1324,1
DA:1327,7
DA:1328,6
DA:1329,6
DA:1330,6
DA:1332,6
DA:1333,6
DA:1334,6
DA:1336,1
DA:1339,1
DA:1340,1
DA:1343,1
DA:1344,1
DA:1345,1
DA:1346,1
DA:1347,1
DA:1350,5
DA:1351,4
DA:1352,4
DA:1353,4
DA:1355,4
DA:1356,4
DA:1357,4
DA:1359,1
DA:1362,1
DA:1363,1
DA:1366,1
DA:1368,8
DA:1370,7
DA:1371,7
DA:1372,7
DA:1374,7
DA:1377,7
DA:1378,7
DA:1380,7
DA:1382,7
DA:1384,1
DA:1391,1
DA:1394,1
DA:1397,1
DA:1398,1
DA:1399,1
DA:1400,1
DA:1401,1
DA:1402,1
DA:1403,1
DA:1406,7
DA:1407,6
DA:1408,6
DA:1409,6
DA:1411,1
DA:1414,1
DA:1415,1
DA:1419,1
DA:1421,5
DA:1422,4
DA:1423,4
DA:1426,4
DA:1428,4
DA:1430,4
DA:1432,1
DA:1436,0
DA:1441,0
DA:1444,0
DA:1445,0
DA:1446,0
DA:1447,0
DA:1448,0
DA:1451,0
DA:1452,0
DA:1454,0
DA:1455,0
DA:1456,0
DA:1457,0
DA:1460,0
DA:1463,1
DA:1464,1
DA:1467,1
DA:1469,1
DA:1470,1
DA:1472,1
DA:1473,1
DA:1474,1
DA:1477,1
DA:1478,1
DA:1481,1
DA:1482,1000
DA:1483,1
DA:1485,1
DA:1486,1
DA:1488,1
DA:1489,1
DA:1490,1
DA:1491,1000
DA:1492,0
DA:1494,1
DA:1497,1
DA:1498,1
DA:1501,1
DA:1502,1
DA:1503,1
DA:1504,7
DA:1505,1
DA:1507,1
DA:1508,1
DA:1510,1
DA:1511,1
DA:1512,1
DA:1513,7
DA:1514,0
DA:1516,1
DA:1524,0
DA:1526,0
DA:1529,0
DA:1530,0
DA:1533,0
DA:1534,0
DA:1537,0
DA:1538,0
DA:1539,0
DA:1543,0
DA:1545,0
DA:1548,0
DA:1549,0
DA:1552,0
DA:1553,0
DA:1556,0
DA:1557,0
DA:1558,0
DA:1561,1
DA:1562,1
DA:1565,1
DA:1566,1
DA:1567,1
DA:1570,11
DA:1571,10
DA:1572,10
DA:1573,1
DA:1574,1
DA:1575,1
DA:1578,1
DA:1582,1
DA:1583,1
DA:1586,5
DA:1587,4
DA:1588,4
DA:1589,4
DA:1590,44
DA:1591,40
DA:1592,40
DA:1593,40
DA:1594,40
DA:1596,4
DA:1597,4
DA:1601,5
DA:1602,4
DA:1603,4
DA:1604,1
DA:1611,1
DA:1612,1
DA:1615,1
DA:1618,11
DA:1619,10
DA:1620,10
DA:1621,10
DA:1624,1
DA:1625,1
DA:1627,1
DA:1628,1
DA:1629,1
DA:1632,1
DA:1635,1
DA:1638,1
DA:1639,100
DA:1640,1
DA:1643,1
DA:1644,1
DA:1645,1
DA:1647,1
DA:1648,1
DA:1649,1
DA:1652,1
DA:1654,1
DA:1655,1
DA:1659,0
DA:1660,0
DA:1663,0
DA:1664,0
DA:1666,0
DA:1669,0
DA:1670,0
DA:1671,0
DA:1672,0
DA:1674,0
DA:1675,0
DA:1678,0
DA:1681,0
DA:1682,0
DA:1685,1
DA:1686,1
DA:1689,1
DA:1690,1
DA:1691,1
DA:1692,1
DA:1693,1
DA:1694,1
DA:1695,1
DA:1698,7
DA:1699,6
DA:1701,6
DA:1702,2
DA:1703,0
DA:1704,4
DA:1707,1
DA:1714,1
DA:1715,1
DA:1718,1
DA:1719,1
DA:1720,1
DA:1721,1
DA:1724,4
DA:1725,3
DA:1726,3
DA:1730,1
DA:1731,1
DA:1732,1
DA:1735,3
DA:1736,2
DA:1737,2
DA:1739,1
DA:1742,1
DA:1743,1
DA:1746,1
DA:1754,6
DA:1755,5
DA:1756,5
DA:1757,5
DA:1758,5
DA:1759,5
DA:1762,5
DA:1763,5
DA:1764,5
DA:1766,1
DA:1769,1
DA:1770,1
DA:1773,1
DA:1784,9
DA:1785,8
DA:1786,8
DA:1787,8
DA:1788,8
DA:1789,8
DA:1792,8
DA:1794,1
DA:1797,1
DA:1798,1
DA:1801,1
DA:1808,5
DA:1809,4
DA:1810,4
DA:1811,4
DA:1812,4
DA:1813,4
DA:1816,4
DA:1818,1
DA:1821,1
DA:1822,1
DA:1825,1
DA:1830,3
DA:1831,2
DA:1832,2
DA:1833,2
DA:1834,2
DA:1835,2
DA:1838,2
DA:1840,1
DA:1843,1
DA:1844,1
DA:1847,1
DA:1853,4
DA:1854,3
DA:1855,3
DA:1856,3
DA:1857,3
DA:1858,3
DA:1861,3
DA:1863,1
DA:1866,1
DA:1867,1
DA:1870,1
DA:1877,5
DA:1878,4
DA:1879,4
DA:1880,4
DA:1881,4
DA:1882,4
DA:1885,4
DA:1887,1
DA:1890,1
DA:1891,1
DA:1894,1
DA:1895,1
DA:1898,1
DA:1899,1
DA:1900,1
DA:1901,1
DA:1902,1
DA:1905,1
DA:1906,1
DA:1907,1
DA:1908,1
DA:1909,1
DA:1912,1
DA:1913,1
DA:1920,1
DA:1921,1
DA:1924,1
DA:1925,1
DA:1928,1
DA:1929,1
DA:1930,1
DA:1931,1
DA:1934,1
DA:1935,1
DA:1938,1
DA:1939,1
DA:1940,1
DA:1941,1
DA:1942,1
DA:1944,1
DA:1947,1
DA:1948,1
DA:1951,1
DA:1952,1
DA:1955,1
DA:1956,1
DA:1957,1
DA:1958,1
DA:1959,1
DA:1961,1
DA:1964,1
DA:1965,1
DA:1972,1
DA:1973,1
DA:1976,1
DA:1977,1
DA:1979,1
DA:1980,1
DA:1983,1
DA:1984,1
DA:1987,1
DA:1988,1
DA:1991,1
DA:1992,1
DA:1995,1
DA:1996,1
DA:1999,17
DA:2000,16
DA:2001,16
DA:2003,16
DA:2004,16
DA:2005,0
DA:2007,1
DA:2010,1
DA:2011,1
DA:2014,33
DA:2015,32
DA:2016,32
DA:2018,32
DA:2019,32
DA:2020,0
DA:2022,1
DA:2025,1
DA:2026,1
DA:2029,17
DA:2030,16
DA:2031,16
DA:2032,16
DA:2036,17
DA:2037,16
DA:2038,16
DA:2039,16
DA:2041,1
DA:2044,1
DA:2045,1
DA:2048,1
DA:2049,1
DA:2050,1
DA:2051,1
DA:2052,1
DA:2053,1
DA:2057,6
DA:2058,5
DA:2059,5
DA:2061,1
DA:2062,1
DA:2065,6
DA:2066,5
DA:2067,5
DA:2069,1
DA:2070,1
DA:2071,1
DA:2078,1
DA:2079,1
DA:2082,1
DA:2083,1
DA:2084,1
DA:2085,112
DA:2086,1
DA:2088,1
DA:2089,1
DA:2090,1
DA:2092,1
DA:2093,1
DA:2094,1
DA:2097,1
DA:2098,1
DA:2101,1
DA:2102,1
DA:2103,1
DA:2104,1
DA:2105,1
DA:2108,5
DA:2109,4
DA:2110,4
DA:2111,4
DA:2113,1
DA:2116,1
DA:2121,1
DA:2122,1
DA:2125,9
DA:2126,8
DA:2127,8
DA:2128,8
DA:2129,808
DA:2130,800
DA:2131,800
DA:2132,800
DA:2133,8
DA:2134,8
DA:2138,9
DA:2139,8
DA:2140,8
DA:2143,1
DA:2144,1
DA:2145,1
DA:2146,1
DA:2147,1
DA:2154,1
DA:2157,1
DA:2161,1
DA:2162,1
DA:2163,1
DA:2164,1
DA:2165,1
DA:2166,1
DA:2167,1
DA:2168,1
DA:2170,1
DA:2174,0
DA:2175,1
DA:2176,0
DA:2177,0
DA:2179,1
DA:2182,1
DA:2185,1
DA:2188,1
DA:2189,1
DA:2190,1
DA:2191,1
DA:2192,1
DA:2193,1
DA:2194,1
DA:2195,1
DA:2196,1
DA:2197,1
DA:2198,1
DA:2199,1
DA:2201,1
DA:2203,1
DA:2204,1
DA:2205,1
DA:2206,1
DA:2207,1
DA:2210,1
DA:2213,1
DA:2216,1
DA:2217,1
DA:2218,1
DA:2219,1
DA:2220,1
DA:2221,1
DA:2222,1
DA:2223,1
DA:2225,1
DA:2227,1
DA:2228,1
DA:2231,1
DA:2232,1
DA:2235,1
DA:2236,1
DA:2239,1
DA:2242,1
DA:2245,1
DA:2246,1
DA:2247,1
DA:2248,1
DA:2249,1
DA:2250,1
DA:2251,1
DA:2254,7
DA:2255,6
DA:2256,6
DA:2257,6
DA:2258,6
DA:2259,6
DA:2261,6
DA:2262,6
DA:2263,0
DA:2265,1
DA:2268,1
DA:2271,1
DA:2274,1
DA:2276,1
DA:2277,1
DA:2278,1
DA:2279,1
DA:2283,5
DA:2284,4
DA:2285,4
DA:2286,4
DA:2287,4
DA:2288,4
DA:2290,4
DA:2291,4
DA:2292,0
DA:2294,1
DA:2297,1
DA:2300,1
DA:2303,1
DA:2304,1
DA:2305,1
DA:2306,1
DA:2307,4
DA:2308,4
DA:2309,4
DA:2310,4
DA:2311,4
DA:2313,4
DA:2314,1
DA:2317,1
DA:2319,1
DA:2320,1
DA:2323,1
DA:2324,5
DA:2325,4
DA:2327,1
DA:2330,1
DA:2333,1
DA:2336,4
DA:2337,3
DA:2338,3
DA:2339,3
DA:2340,3
DA:2341,3
DA:2342,3
DA:2343,3
DA:2344,3
DA:2345,3
DA:2346,3
DA:2347,3
DA:2350,1
DA:2351,1
DA:2352,0
DA:2353,1
DA:2361,1
DA:2364,1
DA:2367,1
DA:2368,1
DA:2369,1
DA:2370,1
DA:2371,1
DA:2373,1
DA:2374,1
DA:2376,1
DA:2377,1
DA:2379,1
DA:2380,1
DA:2384,1
DA:2387,1
DA:2390,1
DA:2391,1
DA:2392,1
DA:2393,1
DA:2394,1
DA:2395,1
DA:2396,1
DA:2397,1
DA:2399,1
DA:2400,1
DA:2402,1
DA:2403,1
DA:2405,1
DA:2406,1
DA:2410,1
DA:2413,1
DA:2415,1
DA:2416,1
DA:2417,1
DA:2418,1
DA:2421,4
DA:2422,3
DA:2423,3
DA:2424,3
DA:2425,3
DA:2426,3
DA:2427,3
DA:2428,3
DA:2429,3
DA:2431,3
DA:2432,3
DA:2434,3
DA:2435,3
DA:2436,3
DA:2437,0
DA:2439,1
DA:2443,1
DA:2446,1
DA:2448,1
DA:2449,1
DA:2450,1
DA:2451,1
DA:2454,4
DA:2455,3
DA:2456,3
DA:2457,3
DA:2458,3
DA:2459,3
DA:2460,3
DA:2461,3
DA:2462,3
DA:2464,3
DA:2465,3
DA:2467,3
DA:2468,3
DA:2469,3
DA:2471,1
DA:2475,1
DA:2478,1
DA:2480,1
DA:2487,5
DA:2488,4
DA:2489,4
DA:2490,4
DA:2491,4
DA:2492,4
DA:2493,4
DA:2494,4
DA:2495,4
DA:2497,4
DA:2498,4
DA:2500,4
DA:2501,4
DA:2503,1
DA:2507,1
DA:2510,1
DA:2512,1
DA:2513,1
DA:2514,1
DA:2515,1
DA:2518,4
DA:2519,3
DA:2520,3
DA:2521,3
DA:2522,3
DA:2523,3
DA:2524,3
DA:2525,3
DA:2526,3
DA:2528,3
DA:2529,3
DA:2531,3
DA:2532,3
DA:2533,3
DA:2534,0
DA:2536,1
DA:2540,1
DA:2543,1
DA:2546,1
DA:2547,1
DA:2548,1
DA:2549,1
DA:2550,1
DA:2551,1
DA:2552,1
DA:2553,1
DA:2554,1
DA:2555,1
DA:2556,1
DA:2557,1
DA:2559,1
DA:2560,1
DA:2562,1
DA:2563,1
DA:2564,1
DA:2567,1
DA:2568,1
DA:2569,1
DA:2570,1
DA:2572,0
DA:2574,1
DA:2578,1
DA:2581,1
DA:2583,1
DA:2584,1
DA:2585,1
DA:2588,3
DA:2589,2
DA:2590,2
DA:2591,2
DA:2592,2
DA:2593,2
DA:2595,2
DA:2596,2
DA:2598,2
DA:2599,2
DA:2600,2
DA:2601,0
DA:2603,1
DA:2607,1
DA:2608,1
DA:2611,17
DA:2612,16
DA:2613,16
DA:2614,16
DA:2615,16
DA:2616,16
DA:2617,16
DA:2618,16
DA:2619,16
DA:2621,16
DA:2622,16
DA:2624,16
DA:2625,16
DA:2628,16
DA:2629,0
DA:2631,1
DA:2639,1
DA:2642,1
DA:2645,1
DA:2646,1
DA:2647,1
DA:2648,1
DA:2649,1
DA:2650,1
DA:2651,1
DA:2652,1
DA:2654,1
DA:2658,1
DA:2659,1
DA:2661,1
DA:2664,0
DA:2666,1
DA:2670,1
DA:2673,1
DA:2676,1
DA:2677,1
DA:2678,1
DA:2679,1
DA:2680,1
DA:2681,1
DA:2682,1
DA:2683,1
DA:2685,1
DA:2686,1
DA:2688,1
DA:2689,1
DA:2692,1
DA:2693,1
DA:2694,1
DA:2696,0
DA:2698,1
DA:2702,1
DA:2705,1
DA:2708,1
DA:2710,6
DA:2711,5
DA:2712,5
DA:2713,5
DA:2714,5
DA:2715,5
DA:2716,5
DA:2717,5
DA:2718,5
DA:2719,5
DA:2720,5
DA:2721,5
DA:2722,5
DA:2724,5
DA:2725,5
DA:2727,5
DA:2730,5
DA:2731,5
DA:2732,5
DA:2734,5
DA:2736,0
DA:2739,1
DA:2743,1
DA:2746,1
DA:2749,1
DA:2750,1
DA:2751,1
DA:2752,1
DA:2753,1
DA:2756,5
DA:2757,4
DA:2758,4
DA:2759,4
DA:2760,4
DA:2761,4
DA:2762,4
DA:2763,4
DA:2764,4
DA:2766,4
DA:2769,4
DA:2770,4
DA:2771,4
DA:2772,0
DA:2775,1
DA:2779,1
DA:2780,1
DA:2783,1
DA:2784,1
DA:2785,1
DA:2786,1
DA:2787,1
DA:2790,5
DA:2791,4
DA:2792,4
DA:2793,4
DA:2794,4
DA:2795,4
DA:2798,4
DA:2799,2
DA:2800,2
DA:2801,0
DA:2804,4
DA:2805,4
DA:2807,4
DA:2808,4
DA:2809,4
DA:2811,1
DA:2815,1
DA:2818,1
DA:2821,1
DA:2823,10
DA:2824,9
DA:2825,9
DA:2826,9
DA:2827,9
DA:2828,9
DA:2829,9
DA:2830,9
DA:2831,9
DA:2832,9
DA:2834,9
DA:2837,9
DA:2838,3
DA:2839,6
DA:2842,1
DA:2846,1
DA:2849,1
DA:2852,1
DA:2853,1
DA:2854,1
DA:2855,1
DA:2856,1
DA:2857,1
DA:2858,1
DA:2859,1
DA:2860,1
DA:2861,1
DA:2862,1
DA:2863,1
DA:2864,1
DA:2865,1
DA:2866,1
DA:2867,1
DA:2868,1
DA:2869,1
DA:2870,1
DA:2874,1
DA:2877,1
DA:2879,1
DA:2880,1
DA:2883,4
DA:2884,3
DA:2886,1
DA:2890,1
DA:2893,1
DA:2896,1
DA:2897,1
DA:2898,50
DA:2899,50
DA:2900,50
DA:2901,50
DA:2902,1
DA:2905,1
DA:2906,1
DA:2907,1
DA:2908,1
DA:2911,1
DA:2913,1
DA:2914,1
DA:2917,51
DA:2918,50
DA:2920,1
DA:2924,1
DA:2927,1
DA:2930,1
DA:2931,1
DA:2932,1
DA:2933,1
DA:2934,1
DA:2935,1
DA:2936,1
DA:2937,1
DA:2940,1
DA:2941,1
DA:2944,1
DA:2947,1
DA:2948,1
DA:2951,1
DA:2952,1
DA:2954,1
DA:2955,1
DA:2956,1
DA:2960,1
DA:2963,1
DA:2966,1
DA:2967,1
DA:2968,200
DA:2970,200
DA:2971,200
DA:2972,1
DA:2975,1
DA:2977,1
DA:2979,1
DA:2980,1
DA:2983,201
DA:2984,200
DA:2986,1
DA:2994,1
DA:2997,1
DA:3000,1
DA:3001,1
DA:3002,1
DA:3003,1
DA:3004,1
DA:3005,1
DA:3006,1
DA:3007,1
DA:3008,1
DA:3009,1
DA:3010,1
DA:3011,1
DA:3012,1
DA:3013,1
DA:3014,1
DA:3015,1
DA:3016,1
DA:3017,1
DA:3018,1
DA:3019,1
DA:3020,1
DA:3021,1
DA:3025,1
DA:3028,1
DA:3030,1
DA:3031,0
DA:3032,1
DA:3036,1
DA:3039,1
DA:3042,1
DA:3043,1
DA:3046,11
DA:3047,10
DA:3048,10
DA:3049,10
DA:3050,10
DA:3051,10
DA:3052,10
DA:3053,10
DA:3054,10
DA:3057,1
DA:3058,1
DA:3059,1
DA:3063,1
DA:3066,1
DA:3069,1
DA:3070,1
DA:3073,1
DA:3074,1
DA:3075,1
DA:3076,1
DA:3077,1
DA:3079,6
DA:3080,5
DA:3081,5
DA:3084,1
DA:3085,1
DA:3086,1
DA:3090,1
DA:3095,1
DA:3096,1
DA:3099,21
DA:3100,20
DA:3101,20
DA:3102,1020
DA:3103,1000
DA:3104,1000
DA:3105,1000
DA:3106,1000
DA:3107,1000
DA:3108,1000
DA:3109,1000
DA:3110,1000
DA:3111,1000
DA:3112,1000
DA:3113,1000
DA:3114,1000
DA:3115,1000
DA:3116,20
DA:3117,20
DA:3121,21
DA:3122,20
DA:3123,20
DA:3126,1
DA:3127,1
DA:3128,1
DA:3129,1
DA:3130,1
DA:3134,1
DA:3137,1
DA:3140,1
DA:3141,5
DA:3142,5
DA:3143,5
DA:3144,500
DA:3145,500
DA:3146,500
DA:3147,500
DA:3148,5
DA:3149,5
DA:3150,1
DA:3153,1
DA:3154,1
DA:3155,5
DA:3156,1
DA:3158,1
DA:3160,1
DA:3161,1
DA:3164,5
DA:3165,5
DA:3166,505
DA:3167,500
DA:3170,1
DA:3174,1
DA:3178,1
DA:3180,1
DA:3181,1
DA:3182,1
DA:3183,1
DA:3184,1
DA:3185,1
DA:3186,1
DA:3187,1
DA:3190,11
DA:3191,10
DA:3192,10
DA:3195,1
DA:3196,1001
DA:3197,1000
DA:3198,1000
DA:3199,1
DA:3202,1
DA:3205,1
DA:3206,1
DA:3207,1
DA:3211,1
DA:3214,1
DA:3217,1
DA:3218,1
DA:3219,1
DA:3220,1
DA:3221,1
DA:3222,1
DA:3223,1
DA:3224,1
DA:3225,1
DA:3226,1
DA:3227,1
DA:3228,1
DA:3229,1
DA:3230,1
DA:3231,1
DA:3232,1
DA:3233,1
DA:3234,1
DA:3235,1
DA:3236,1
DA:3237,1
DA:3238,1
DA:3239,1
DA:3240,1
DA:3241,1
DA:3242,1
DA:3243,1
DA:3244,1
DA:3245,1
DA:3246,1
DA:3247,1
DA:3248,1
DA:3249,1
DA:3252,4
DA:3253,3
DA:3254,3
DA:3256,3
DA:3257,3
DA:3258,3
DA:3260,1
DA:3264,1
DA:3267,1
DA:3269,1
DA:3270,1
DA:3271,1
DA:3272,1
DA:3273,1
DA:3276,1
DA:3278,1
DA:3279,1
DA:3280,1
DA:3281,1
DA:3284,1
DA:3287,1
DA:3289,1
DA:3290,1
DA:3291,1
DA:3292,1
DA:3295,1
DA:3298,1
DA:3299,1
DA:3300,1
DA:3301,1
DA:3305,1
DA:3308,1
DA:3310,1
DA:3311,1
DA:3312,1
DA:3313,1
DA:3314,1
DA:3315,1
DA:3316,1
DA:3319,7
DA:3320,6
DA:3321,6
DA:3322,6
DA:3323,6
DA:3324,6
DA:3326,6
DA:3327,6
DA:3328,6
DA:3329,0
DA:3334,6
DA:3335,6
DA:3337,1
DA:3341,1
DA:3344,1
DA:3347,1
DA:3348,6
DA:3349,5
DA:3350,5
DA:3351,5
DA:3352,5
DA:3353,5
DA:3354,5
DA:3355,5
DA:3356,5
DA:3357,5
DA:3358,5
DA:3359,5
DA:3362,1
DA:3363,1
DA:3365,1
DA:3366,1
DA:3368,1
DA:3369,1
DA:3371,1
DA:3372,1
DA:3373,1
DA:3381,1
DA:3384,1
DA:3387,1
DA:3388,1
DA:3389,1
DA:3390,1
DA:3391,1
DA:3392,1
DA:3393,1
DA:3394,1
DA:3395,1
DA:3396,1
DA:3397,1
DA:3398,1
DA:3399,1
DA:3400,1
DA:3401,1
DA:3402,1
DA:3403,1
DA:3404,1
DA:3405,1
DA:3406,1
DA:3407,1
DA:3408,1
DA:3409,1
DA:3411,1
DA:3412,1
DA:3413,1
DA:3414,1
DA:3415,1
DA:3416,1
DA:3417,1
DA:3418,1
DA:3419,1
DA:3420,1
DA:3421,1
DA:3422,1
DA:3423,1
DA:3424,1
DA:3425,1
DA:3426,1
DA:3427,1
DA:3428,1
DA:3429,1
DA:3430,1
DA:3431,1
DA:3432,1
DA:3433,1
DA:3434,1
DA:3435,1
DA:3440,1
DA:3441,1
DA:3442,1
DA:3443,1
DA:3446,1
DA:3448,1
DA:3449,1
DA:3452,1
DA:3453,1
DA:3454,1
DA:3457,4
DA:3458,9
DA:3459,6
DA:3462,1
DA:3466,1
DA:3467,1
DA:3470,1
DA:3471,1
DA:3472,1
DA:3473,1
DA:3474,1
DA:3477,1
DA:3479,1
DA:3480,1
DA:3481,1
DA:3485,1
DA:3488,1
DA:3491,1
DA:3492,1
DA:3493,1
DA:3494,1
DA:3495,1
DA:3496,1
DA:3497,1
DA:3498,1
DA:3499,1
DA:3500,50
DA:3502,50
DA:3503,50
DA:3504,1
DA:3507,1
DA:3508,1
DA:3509,1
DA:3510,1
DA:3513,1
DA:3515,1
DA:3516,1
DA:3517,1
DA:3518,1
DA:3519,1
DA:3520,1
DA:3524,1
DA:3527,1
DA:3529,1
DA:3530,1
DA:3531,1
DA:3532,1
DA:3533,1
DA:3534,1
DA:3535,1
DA:3536,1
DA:3537,1
DA:3538,1
DA:3539,1
DA:3540,1
DA:3541,1
DA:3542,1
DA:3543,1
DA:3544,1
DA:3545,1
DA:3546,1
DA:3548,1
DA:3549,1
DA:3550,1
DA:3551,1
DA:3552,1
DA:3553,1
DA:3554,1
DA:3555,1
DA:3556,1
DA:3560,1
DA:3561,1
DA:3562,1
DA:3563,1
DA:3564,1
DA:3567,1
DA:3568,1
DA:3570,1
DA:3571,1
DA:3572,1
DA:3576,1
DA:3579,1
DA:3581,1
DA:3582,1
DA:3583,1
DA:3584,1
DA:3585,1
DA:3586,1
DA:3590,1
DA:3591,1
DA:3592,1
DA:3593,1
DA:3597,1
DA:3599,1
DA:3600,1
DA:3601,1
DA:3604,1
DA:3605,1
DA:3609,1
DA:3612,1
DA:3615,1
DA:3621,1
DA:3622,1
DA:3623,9
DA:3624,9
DA:3625,9
DA:3626,9
DA:3627,9
DA:3628,9
DA:3629,9
DA:3630,9
DA:3631,9
DA:3632,9
DA:3633,1
DA:3635,1
DA:3636,1
DA:3637,1
DA:3638,1
DA:3641,1
DA:3643,1
DA:3644,1
DA:3647,10
DA:3648,9
DA:3649,9
DA:3651,1
DA:3655,1
DA:3659,1
DA:3662,1
DA:3663,10
DA:3664,10
DA:3665,10
DA:3666,500
DA:3667,500
DA:3668,500
DA:3669,500
DA:3670,10
DA:3671,10
DA:3672,1
DA:3675,1
DA:3676,1
DA:3677,1
DA:3678,1
DA:3679,1
DA:3681,1
DA:3683,1
DA:3686,1
DA:3688,1
DA:3689,1
DA:3691,10
DA:3692,1
DA:3693,1
DA:3697,1
DA:3700,1
DA:3701,1
DA:3703,1
DA:3704,1
DA:3705,1
DA:3706,1
DA:3707,1
DA:3708,1
DA:3709,1
DA:3710,1
DA:3711,1
DA:3712,1
DA:3713,1
DA:3714,1
DA:3715,1
DA:3716,1
DA:3717,1
DA:3718,1
DA:3719,1
DA:3720,1
DA:3722,1
DA:3723,1
DA:3724,1
DA:3725,1
DA:3726,1
DA:3727,1
DA:3728,1
DA:3729,1
DA:3730,1
DA:3735,1
DA:3736,1
DA:3737,1
DA:3738,1
DA:3742,1
DA:3743,3
DA:3744,2
DA:3745,2
DA:3746,2
DA:3749,1
DA:3751,1
DA:3754,1
DA:3756,2
DA:3757,2
DA:3758,0
DA:3760,3
DA:3761,3
DA:3762,0
DA:3763,3
DA:3766,1
DA:3770,1
DA:3771,1
DA:3774,11
DA:3775,10
DA:3776,10
DA:3777,10
DA:3778,10
DA:3779,10
DA:3780,10
DA:3781,10
DA:3782,10
DA:3783,10
DA:3784,10
DA:3785,10
DA:3788,1
DA:3789,1
DA:3792,1
DA:3793,1
DA:3794,1
DA:3798,1
DA:3801,1
DA:3804,1
DA:3805,1
DA:3806,1
DA:3807,1
DA:3808,1
DA:3809,1
DA:3810,1
DA:3811,1
DA:3812,1
DA:3813,1
DA:3814,1
DA:3815,1
DA:3816,1
DA:3817,1
DA:3820,1
DA:3823,1
DA:3824,1
DA:3825,20
DA:3826,20
DA:3827,20
DA:3828,20
DA:3829,1
DA:3831,1
DA:3832,1
DA:3835,1
DA:3836,1
DA:3839,1
DA:3840,1
DA:3843,1
DA:3844,1
DA:3847,1
DA:3850,1
DA:3851,1
DA:3852,1
DA:3853,1
BRF:0
BRH:0
LF:2315
LH:2140
end_of_record
SF:/Users/didi/Desktop/vm/vm-gc/src/adaptive.rs
FN:304,_RNCNvMs2_NtCs4gdf64sH1Y3_5vm_gc8adaptiveNtB7_18PerformanceHistory17problem_frequency0B9_
FNDA:0,_RNCNvMs2_NtCs4gdf64sH1Y3_5vm_gc8adaptiveNtB7_18PerformanceHistory17problem_frequency0B9_
FNF:1
FNH:0
DA:304,0
BRF:0
BRH:0
LF:1
LH:0
end_of_record
SF:/Users/didi/Desktop/vm/vm-gc/src/error.rs
FN:60,_RNvMNtCs4gdf64sH1Y3_5vm_gc5errorNtB2_7GcError13heap_overflow
FNDA:0,_RNvMNtCs4gdf64sH1Y3_5vm_gc5errorNtB2_7GcError13heap_overflow
FNF:1
FNH:0
DA:60,0
DA:61,0
DA:62,0
DA:63,0
DA:64,0
DA:65,0
BRF:0
BRH:0
LF:6
LH:0
end_of_record
SF:/Users/didi/Desktop/vm/vm-gc/src/generational/enhanced.rs
FN:415,_RNCNvMs1_NtNtCs4gdf64sH1Y3_5vm_gc12generational8enhancedNtB7_14GenerationalGC15compact_old_gen0Bb_
FN:266,_RNCNvMs1_NtNtCs4gdf64sH1Y3_5vm_gc12generational8enhancedNtB7_14GenerationalGC8minor_gc0Bb_
FNDA:0,_RNCNvMs1_NtNtCs4gdf64sH1Y3_5vm_gc12generational8enhancedNtB7_14GenerationalGC15compact_old_gen0Bb_
FNDA:0,_RNCNvMs1_NtNtCs4gdf64sH1Y3_5vm_gc12generational8enhancedNtB7_14GenerationalGC8minor_gc0Bb_
FNF:2
FNH:0
DA:266,0
DA:415,0
BRF:0
BRH:0
LF:2
LH:0
end_of_record